Archive member included to satisfy reference by file (symbol)

c:/program files/microchip/xc32/v4.21/bin/bin/../../lib/gcc/pic32c/8.3.1/../../../../pic32c/lib/thumb/v7e-m+fp/hard\libpic32c.a(data_init_wrapper.o)
                              C:\Users\Loyola\AppData\Local\Temp\cc65FL0A.o (__pic32c_data_initialization)
c:/program files/microchip/xc32/v4.21/bin/bin/../../lib/gcc/pic32c/8.3.1/../../../../pic32c/lib/thumb/v7e-m+fp/hard\libpic32c.a(data_init_0_1.o)
                              c:/program files/microchip/xc32/v4.21/bin/bin/../../lib/gcc/pic32c/8.3.1/../../../../pic32c/lib/thumb/v7e-m+fp/hard\libpic32c.a(data_init_wrapper.o) (__pic32c_data_initialization_impl)
c:/program files/microchip/xc32/v4.21/bin/bin/../../lib/gcc/pic32c/8.3.1/../../../../pic32c/lib/thumb/v7e-m+fp/hard\libm-emfloat.a(__aeabi_dsub.o)
                              build/Default/debug/hpl/sercom/hpl_sercom.o (__aeabi_dsub)
c:/program files/microchip/xc32/v4.21/bin/bin/../../lib/gcc/pic32c/8.3.1/../../../../pic32c/lib/thumb/v7e-m+fp/hard\libm-emfloat.a(__aeabi_dmul.o)
                              build/Default/debug/hpl/sercom/hpl_sercom.o (__aeabi_dmul)
c:/program files/microchip/xc32/v4.21/bin/bin/../../lib/gcc/pic32c/8.3.1/../../../../pic32c/lib/thumb/v7e-m+fp/hard\libm-emfloat.a(__aeabi_ddiv.o)
                              build/Default/debug/hpl/sercom/hpl_sercom.o (__aeabi_ddiv)
c:/program files/microchip/xc32/v4.21/bin/bin/../../lib/gcc/pic32c/8.3.1/../../../../pic32c/lib/thumb/v7e-m+fp/hard\libm-emfloat.a(__aeabi_d2uiz.o)
                              build/Default/debug/hpl/sercom/hpl_sercom.o (__aeabi_d2uiz)
c:/program files/microchip/xc32/v4.21/bin/bin/../../lib/gcc/pic32c/8.3.1/../../../../pic32c/lib/thumb/v7e-m+fp/hard\libm-emfloat.a(__aeabi_i2d.o)
                              build/Default/debug/hpl/sercom/hpl_sercom.o (__aeabi_i2d)
c:/program files/microchip/xc32/v4.21/bin/bin/../../lib/gcc/pic32c/8.3.1/../../../../pic32c/lib/thumb/v7e-m+fp/hard\libm-emfloat.a(__aeabi_ui2d.o)
                              build/Default/debug/hpl/sercom/hpl_sercom.o (__aeabi_ui2d)
c:/program files/microchip/xc32/v4.21/bin/bin/../../lib/gcc/pic32c/8.3.1/../../../../pic32c/lib/thumb/v7e-m+fp/hard\libm-emfloat.a(__aeabi_dadd.o)
                              c:/program files/microchip/xc32/v4.21/bin/bin/../../lib/gcc/pic32c/8.3.1/../../../../pic32c/lib/thumb/v7e-m+fp/hard\libm-emfloat.a(__aeabi_dsub.o) (__aeabi_dadd)
c:/program files/microchip/xc32/v4.21/bin/bin/../../lib/gcc/pic32c/8.3.1/../../../../pic32c/lib/thumb/v7e-m+fp/hard\libg-musl.a(__libc_start_main.o)
                              C:\Users\Loyola\AppData\Local\Temp\cc65FL0A.o (__libc_init_array)
c:/program files/microchip/xc32/v4.21/bin/bin/../../lib/gcc/pic32c/8.3.1/../../../../pic32c/lib/thumb/v7e-m+fp/hard\libg-musl.a(libc.o)
                              c:/program files/microchip/xc32/v4.21/bin/bin/../../lib/gcc/pic32c/8.3.1/../../../../pic32c/lib/thumb/v7e-m+fp/hard\libg-musl.a(__libc_start_main.o) (__progname_full)
c:/program files/microchip/xc32/v4.21/bin/bin/../../lib/gcc/pic32c/8.3.1/../../../../pic32c/lib/thumb/v7e-m+fp/hard\libg-musl.a(__sio_printf_doux.o)
                              (_printf_cdnopuxX)
c:/program files/microchip/xc32/v4.21/bin/bin/../../lib/gcc/pic32c/8.3.1/../../../../pic32c/lib/thumb/v7e-m+fp/hard\libg-musl.a(__sio_sprintf_doux.o)
                              (_sprintf_cdnopuxX)
c:/program files/microchip/xc32/v4.21/bin/bin/../../lib/gcc/pic32c/8.3.1/../../../../pic32c/lib/thumb/v7e-m+fp/hard\libg-musl.a(__fmt_d.o)
                              c:/program files/microchip/xc32/v4.21/bin/bin/../../lib/gcc/pic32c/8.3.1/../../../../pic32c/lib/thumb/v7e-m+fp/hard\libg-musl.a(__sio_printf_doux.o) (__fmt_d_needed)
c:/program files/microchip/xc32/v4.21/bin/bin/../../lib/gcc/pic32c/8.3.1/../../../../pic32c/lib/thumb/v7e-m+fp/hard\libg-musl.a(__fmt_o.o)
                              c:/program files/microchip/xc32/v4.21/bin/bin/../../lib/gcc/pic32c/8.3.1/../../../../pic32c/lib/thumb/v7e-m+fp/hard\libg-musl.a(__sio_printf_doux.o) (__fmt_o_needed)
c:/program files/microchip/xc32/v4.21/bin/bin/../../lib/gcc/pic32c/8.3.1/../../../../pic32c/lib/thumb/v7e-m+fp/hard\libg-musl.a(__fmt_s.o)
                              c:/program files/microchip/xc32/v4.21/bin/bin/../../lib/gcc/pic32c/8.3.1/../../../../pic32c/lib/thumb/v7e-m+fp/hard\libg-musl.a(__sio_printf_doux.o) (__fmt_s_needed)
c:/program files/microchip/xc32/v4.21/bin/bin/../../lib/gcc/pic32c/8.3.1/../../../../pic32c/lib/thumb/v7e-m+fp/hard\libg-musl.a(__fmt_u.o)
                              c:/program files/microchip/xc32/v4.21/bin/bin/../../lib/gcc/pic32c/8.3.1/../../../../pic32c/lib/thumb/v7e-m+fp/hard\libg-musl.a(__fmt_d.o) (__cvt_u)
c:/program files/microchip/xc32/v4.21/bin/bin/../../lib/gcc/pic32c/8.3.1/../../../../pic32c/lib/thumb/v7e-m+fp/hard\libg-musl.a(__fmt_x.o)
                              c:/program files/microchip/xc32/v4.21/bin/bin/../../lib/gcc/pic32c/8.3.1/../../../../pic32c/lib/thumb/v7e-m+fp/hard\libg-musl.a(__sio_printf_doux.o) (__fmt_x_needed)
c:/program files/microchip/xc32/v4.21/bin/bin/../../lib/gcc/pic32c/8.3.1/../../../../pic32c/lib/thumb/v7e-m+fp/hard\libg-musl.a(__pop_int.o)
                              c:/program files/microchip/xc32/v4.21/bin/bin/../../lib/gcc/pic32c/8.3.1/../../../../pic32c/lib/thumb/v7e-m+fp/hard\libg-musl.a(__sio_printf_doux.o) (__pop_int_needed)
c:/program files/microchip/xc32/v4.21/bin/bin/../../lib/gcc/pic32c/8.3.1/../../../../pic32c/lib/thumb/v7e-m+fp/hard\libg-musl.a(__pop_ptr.o)
                              c:/program files/microchip/xc32/v4.21/bin/bin/../../lib/gcc/pic32c/8.3.1/../../../../pic32c/lib/thumb/v7e-m+fp/hard\libg-musl.a(__sio_printf_doux.o) (__pop_ptr_needed)
c:/program files/microchip/xc32/v4.21/bin/bin/../../lib/gcc/pic32c/8.3.1/../../../../pic32c/lib/thumb/v7e-m+fp/hard\libg-musl.a(__printf_core.o)
                              c:/program files/microchip/xc32/v4.21/bin/bin/../../lib/gcc/pic32c/8.3.1/../../../../pic32c/lib/thumb/v7e-m+fp/hard\libg-musl.a(__fmt_d.o) (__pad)
c:/program files/microchip/xc32/v4.21/bin/bin/../../lib/gcc/pic32c/8.3.1/../../../../pic32c/lib/thumb/v7e-m+fp/hard\libg-musl.a(stdout.o)
                              c:/program files/microchip/xc32/v4.21/bin/bin/../../lib/gcc/pic32c/8.3.1/../../../../pic32c/lib/thumb/v7e-m+fp/hard\libg-musl.a(__sio_printf_doux.o) (_stdout)
c:/program files/microchip/xc32/v4.21/bin/bin/../../lib/gcc/pic32c/8.3.1/../../../../pic32c/lib/thumb/v7e-m+fp/hard\libg-musl.a(atoi.o)
                              c:/program files/microchip/xc32/v4.21/bin/bin/../../lib/gcc/pic32c/8.3.1/../../../../pic32c/lib/thumb/v7e-m+fp/hard\libg-musl.a(__printf_core.o) (atoi)
c:/program files/microchip/xc32/v4.21/bin/bin/../../lib/gcc/pic32c/8.3.1/../../../../pic32c/lib/thumb/v7e-m+fp/hard\libg-musl.a(memcpy.o)
                              build/Default/debug/thirdparty/RTOS/freertos/FreeRTOSV10.0.0/Source/queue.o (memcpy)
c:/program files/microchip/xc32/v4.21/bin/bin/../../lib/gcc/pic32c/8.3.1/../../../../pic32c/lib/thumb/v7e-m+fp/hard\libg-musl.a(memset.o)
                              build/Default/debug/hal/utils/src/utils_event.o (memset)
c:/program files/microchip/xc32/v4.21/bin/bin/../../lib/gcc/pic32c/8.3.1/../../../../pic32c/lib/thumb/v7e-m+fp/hard\libg-musl.a(strlen.o)
                              build/Default/debug/thirdparty/RTOS/freertos/FreeRTOSV10.0.0/Source/tasks.o (strlen)
c:/program files/microchip/xc32/v4.21/bin/bin/../../lib/gcc/pic32c/8.3.1/../../../../pic32c/lib/thumb/v7e-m+fp/hard\libg-musl.a(strstr.o)
                              build/Default/debug/WiFi.o (strstr)
c:/program files/microchip/xc32/v4.21/bin/bin/../../lib/gcc/pic32c/8.3.1/../../../../pic32c/lib/thumb/v7e-m+fp/hard\libg-musl.a(strcpy.o)
                              build/Default/debug/thirdparty/RTOS/freertos/FreeRTOSV10.0.0/Source/tasks.o (strcpy)
c:/program files/microchip/xc32/v4.21/bin/bin/../../lib/gcc/pic32c/8.3.1/../../../../pic32c/lib/thumb/v7e-m+fp/hard\libg-musl.a(tolower.o)
                              c:/program files/microchip/xc32/v4.21/bin/bin/../../lib/gcc/pic32c/8.3.1/../../../../pic32c/lib/thumb/v7e-m+fp/hard\libg-musl.a(__printf_core.o) (tolower)
c:/program files/microchip/xc32/v4.21/bin/bin/../../lib/gcc/pic32c/8.3.1/../../../../pic32c/lib/thumb/v7e-m+fp/hard\libg-musl.a(toupper.o)
                              c:/program files/microchip/xc32/v4.21/bin/bin/../../lib/gcc/pic32c/8.3.1/../../../../pic32c/lib/thumb/v7e-m+fp/hard\libg-musl.a(__fmt_x.o) (toupper)
c:/program files/microchip/xc32/v4.21/bin/bin/../../lib/gcc/pic32c/8.3.1/../../../../pic32c/lib/thumb/v7e-m+fp/hard\libg-musl.a(__environ.o)
                              c:/program files/microchip/xc32/v4.21/bin/bin/../../lib/gcc/pic32c/8.3.1/../../../../pic32c/lib/thumb/v7e-m+fp/hard\libg-musl.a(__libc_start_main.o) (__environ)
c:/program files/microchip/xc32/v4.21/bin/bin/../../lib/gcc/pic32c/8.3.1/../../../../pic32c/lib/thumb/v7e-m+fp/hard\libg-musl.a(__errno_location.o)
                              c:/program files/microchip/xc32/v4.21/bin/bin/../../lib/gcc/pic32c/8.3.1/../../../../pic32c/lib/thumb/v7e-m+fp/hard\libg-musl.a(__printf_core.o) (__errno_val)
c:/program files/microchip/xc32/v4.21/bin/bin/../../lib/gcc/pic32c/8.3.1/../../../../pic32c/lib/thumb/v7e-m+fp/hard\libg-musl.a(__int_vfprintf.o)
                              c:/program files/microchip/xc32/v4.21/bin/bin/../../lib/gcc/pic32c/8.3.1/../../../../pic32c/lib/thumb/v7e-m+fp/hard\libg-musl.a(__sio_printf_doux.o) (__vfprintf)
c:/program files/microchip/xc32/v4.21/bin/bin/../../lib/gcc/pic32c/8.3.1/../../../../pic32c/lib/thumb/v7e-m+fp/hard\libg-musl.a(__int_vsprintf.o)
                              c:/program files/microchip/xc32/v4.21/bin/bin/../../lib/gcc/pic32c/8.3.1/../../../../pic32c/lib/thumb/v7e-m+fp/hard\libg-musl.a(__sio_sprintf_doux.o) (__vsprintf)
c:/program files/microchip/xc32/v4.21/bin/bin/../../lib/gcc/pic32c/8.3.1/../../../../pic32c/lib/thumb/v7e-m+fp/hard\libg-musl.a(__io_init_needed.o)
                              c:/program files/microchip/xc32/v4.21/bin/bin/../../lib/gcc/pic32c/8.3.1/../../../../pic32c/lib/thumb/v7e-m+fp/hard\libg-musl.a(stdout.o) (__io_init_needed)
c:/program files/microchip/xc32/v4.21/bin/bin/../../lib/gcc/pic32c/8.3.1/../../../../pic32c/lib/thumb/v7e-m+fp/hard\libg-musl.a(__pop_float.o)
                              c:/program files/microchip/xc32/v4.21/bin/bin/../../lib/gcc/pic32c/8.3.1/../../../../pic32c/lib/thumb/v7e-m+fp/hard\libg-musl.a(__printf_core.o) (__pop_float)
c:/program files/microchip/xc32/v4.21/bin/bin/../../lib/gcc/pic32c/8.3.1/../../../../pic32c/lib/thumb/v7e-m+fp/hard\libg-musl.a(stpcpy.o)
                              c:/program files/microchip/xc32/v4.21/bin/bin/../../lib/gcc/pic32c/8.3.1/../../../../pic32c/lib/thumb/v7e-m+fp/hard\libg-musl.a(strcpy.o) (__stpcpy)
c:/program files/microchip/xc32/v4.21/bin/bin/../../lib/gcc/pic32c/8.3.1/../../../../pic32c/lib/thumb/v7e-m+fp/hard\libg-musl.a(__int_vsnprintf.o)
                              c:/program files/microchip/xc32/v4.21/bin/bin/../../lib/gcc/pic32c/8.3.1/../../../../pic32c/lib/thumb/v7e-m+fp/hard\libg-musl.a(__int_vsprintf.o) (__vsnprintf)
c:/program files/microchip/xc32/v4.21/bin/bin/../../lib/gcc/pic32c/8.3.1/../../../../pic32c/lib/thumb/v7e-m+fp/hard\libg-musl.a(__init_stdio.o)
                              c:/program files/microchip/xc32/v4.21/bin/bin/../../lib/gcc/pic32c/8.3.1/../../../../pic32c/lib/thumb/v7e-m+fp/hard\libg-musl.a(__io_init_needed.o) (__init_stdio_needed)
c:/program files/microchip/xc32/v4.21/bin/bin/../../lib/gcc/pic32c/8.3.1/../../../../pic32c/lib/thumb/v7e-m+fp/hard\libg-musl.a(__io_file_needed.o)
                              c:/program files/microchip/xc32/v4.21/bin/bin/../../lib/gcc/pic32c/8.3.1/../../../../pic32c/lib/thumb/v7e-m+fp/hard\libg-musl.a(__io_init_needed.o) (__io_file_needed)
c:/program files/microchip/xc32/v4.21/bin/bin/../../lib/gcc/pic32c/8.3.1/../../../../pic32c/lib/thumb/v7e-m+fp/hard\libg-musl.a(__out.o)
                              c:/program files/microchip/xc32/v4.21/bin/bin/../../lib/gcc/pic32c/8.3.1/../../../../pic32c/lib/thumb/v7e-m+fp/hard\libg-musl.a(__io_file_needed.o) (__out_needed)
c:/program files/microchip/xc32/v4.21/bin/bin/../../lib/gcc/pic32c/8.3.1/thumb/v7e-m+fp/hard\libgcc.a(_aeabi_uldivmod.o)
                              build/Default/debug/hpl/sercom/hpl_sercom.o (__aeabi_uldivmod)
c:/program files/microchip/xc32/v4.21/bin/bin/../../lib/gcc/pic32c/8.3.1/thumb/v7e-m+fp/hard\libgcc.a(_udivmoddi4.o)
                              c:/program files/microchip/xc32/v4.21/bin/bin/../../lib/gcc/pic32c/8.3.1/thumb/v7e-m+fp/hard\libgcc.a(_aeabi_uldivmod.o) (__udivmoddi4)
c:/program files/microchip/xc32/v4.21/bin/bin/../../lib/gcc/pic32c/8.3.1/thumb/v7e-m+fp/hard\libgcc.a(_dvmd_tls.o)
                              c:/program files/microchip/xc32/v4.21/bin/bin/../../lib/gcc/pic32c/8.3.1/thumb/v7e-m+fp/hard\libgcc.a(_aeabi_uldivmod.o) (__aeabi_ldiv0)
c:/program files/microchip/xc32/v4.21/bin/bin/../../lib/gcc/pic32c/8.3.1/../../../../pic32c/lib/thumb/v7e-m+fp/hard\libpic32c.a(write.o)
                              c:/program files/microchip/xc32/v4.21/bin/bin/../../lib/gcc/pic32c/8.3.1/../../../../pic32c/lib/thumb/v7e-m+fp/hard\libg-musl.a(__out.o) (write)
c:/program files/microchip/xc32/v4.21/bin/bin/../../lib/gcc/pic32c/8.3.1/../../../../pic32c/lib/thumb/v7e-m+fp/hard\libpic32c.a(_mon_putc.o)
                              c:/program files/microchip/xc32/v4.21/bin/bin/../../lib/gcc/pic32c/8.3.1/../../../../pic32c/lib/thumb/v7e-m+fp/hard\libpic32c.a(write.o) (_mon_putc)

Allocating common symbols
Common symbol       size              file

USART_2             0xc               build/Default/debug/driver_init.o
EDBG_COM            0xc               build/Default/debug/driver_init.o
_irq_table          0x224             build/Default/debug/hpl/core/hpl_core_m4.o
USART_0             0xc               build/Default/debug/driver_init.o
USART_1             0xc               build/Default/debug/driver_init.o
device              0x10              build/Default/debug/hpl/ramecc/hpl_ramecc.o

Microchip PIC32 Memory-Usage Report

ROM Program-Memory Usage
section                    address  length [bytes]      (dec)  Description
-------                 ----------  -------------------------  -----------
.vectors                         0          0x264         612   
.text                        0x264           0x20          32  App's exec code 
.ARM.exidx                   0x284            0x8           8   
.rodata                      0x28c            0x4           4  Read-only const 
.text                        0x290         0x9f98       40856  App's exec code 
.rodata                     0xa228            0x8           8  Read-only const 
.text                       0xa230          0x7a8        1960  App's exec code 
.text.__printf_core         0xa9d8          0x2f4         756   
.text                       0xaccc          0x774        1908  App's exec code 
.text.__aeabi_dadd          0xb440          0x23e         574   
.text.__aeabi_ddiv          0xb67e          0x216         534   
.dinit                      0xb894          0x1e0         480   
.text                       0xba74          0x43a        1082  App's exec code 
.text.Dummy_Handler         0xbeae            0x2           2   
.text                       0xbeb0          0x158         344  App's exec code 
.text.__aeabi_dmul          0xc008          0x130         304   
.text.__fmt_x               0xc138          0x11e         286   
.text.__dummy               0xc256            0x2           2   
.text                       0xc258          0x498        1176  App's exec code 
.rodata                     0xc6f0           0xb8         184  Read-only const 
.text.__pop_int             0xc7a8           0xac         172   
.text.__fmt_d               0xc854           0xa8         168   
.text                       0xc8fc          0x270         624  App's exec code 
.text.Reset_Handler         0xcb6c           0x90         144   
.text                       0xcbfc           0x8c         140  App's exec code 
.text.__pad                 0xcc88           0x80         128   
.text.__pop_ptr             0xcd08           0x7c         124   
.text.__cvt_u               0xcd84           0x78         120   
.text.__fmt_o               0xcdfc           0x72         114   
.text.__dummy               0xce6e            0x2           2   
.text                       0xce70           0x60          96  App's exec code 
.text.__pic32c_data_ini     0xced0           0x60          96   
.text.__libc_start_init     0xcf30           0x5c          92   
.text                       0xcf8c           0xb2         178  App's exec code 
.text._mon_putc             0xd03e            0x2           2   
.text.__fmt_s               0xd040           0x58          88   
.text.__fmt_u               0xd098           0x56          86   
.text.__vsnprintf           0xd0f0           0x50          80   
.text                       0xd140           0x94         148  App's exec code 
.text.atoi                  0xd1d4           0x46          70   
.text                       0xd21c           0xb8         184  App's exec code 
.text.write                 0xd2d4           0x3c          60   
.text.__out                 0xd310           0x3a          58   
.text                       0xd34c           0x38          56  App's exec code 
.text.__fmt_state           0xd384           0x38          56   
.rodata                     0xd3bc           0x34          52  Read-only const 
.text                       0xd3f0           0x30          48  App's exec code 
.text.strstr                0xd420           0x2a          42   
.text.__pop_float           0xd44a           0x2a          42   
.text                       0xd474           0x28          40  App's exec code 
.text.__string_out          0xd49c           0x26          38   
.text.__aeabi_d2uiz         0xd4c2           0x24          36   
.text.__wrap_printf         0xd4e8           0x24          36   
.text.__aeabi_i2d           0xd50c           0x22          34   
.text.__sio_printf_doux     0xd52e           0x22          34   
.text.__sio_sprintf_dou     0xd550           0x22          34   
.rodata                     0xd574           0x1c          28  Read-only const 
.text.__aeabi_ui2d          0xd590           0x1c          28   
.rodata                     0xd5ac           0x1c          28  Read-only const 
.text.__vfprintf            0xd5c8           0x1c          28   
.text.__wrap_sprintf        0xd5e4           0x1a          26   
.rodata                     0xd600           0x18          24  Read-only const 
.text.__init_stdout         0xd618           0x14          20   
.text.memcpy                0xd62c           0x12          18   
.text.stpcpy                0xd63e           0x12          18   
.rodata                     0xd650           0x10          16  Read-only const 
.text                       0xd660           0x20          32  App's exec code 
.text.memset                0xd680           0x10          16   
.text.strlen                0xd690           0x10          16   
.text.__init_stdio          0xd6a0           0x10          16   
.text                       0xd6b0            0xe          14  App's exec code 
.text.tolower               0xd6be            0xe          14   
.text.toupper               0xd6cc            0xe          14   
.text.strcpy                0xd6da            0xc          12   
.text.__vsprintf            0xd6e6            0xc          12   
.rodata                     0xd6f4            0x8           8  Read-only const 
.text.__aeabi_dsub          0xd6fc            0x8           8   
.text.__dummy               0xd704            0x8           8   
.rodata                     0xd70c            0x7           7  Read-only const 
.text.__fwrite_min          0xd714            0x6           6   
.text.__pic32c_data_ini     0xd71a            0x4           4   
.text.__dummy_fmt3          0xd71e            0x4           4   
.text.__dummy_fmt4          0xd722            0x4           4   
.text.__dummy_fmts          0xd726            0x4           4   
.text.__tolower_l           0xd72a            0x4           4   
.text.__toupper_l           0xd72e            0x4           4   
.text                       0xd734            0x4           4  App's exec code 
      Total ROM used  :      0xd727       55079  5.3% of 0x100000
        --------------------------------------------------------------------------
         Total Program Memory used  :      0xd727       55079  5.3% of 0x100000
        --------------------------------------------------------------------------


RAM Data-Memory Usage
section                    address  length [bytes]      (dec)  Description
-------                 ----------  -------------------------  -----------
.bss                    0x20000000          0x264         612  Uninitialized data 
.bss                    0x20000264         0x2761       10081  Uninitialized data 
.bss                    0x200029c5            0x1           1  Uninitialized data 
.bss                    0x200029c8           0x1c          28  Uninitialized data 
.data                   0x200029e4           0x8c         140  Initialized data 
.eh_frame               0x20002a70            0x4           4   
         Total RAM used  :      0x2a72       10866  4.1% of 0x40000
        --------------------------------------------------------------------------
            Total Data Memory used  :      0x2a72       10866  4.1% of 0x40000
        --------------------------------------------------------------------------


Dynamic Data-Memory Reservation
section                    address  length [bytes]      (dec)  Description
-------                 ----------  -------------------------  -----------
heap                    0x20002a78           0x10          16  Reserved for heap 
stack                   0x20002aa0        0x3d550      251216  Reserved for stack 

        --------------------------------------------------------------------------

Discarded input sections

 .xc_stack_usage.hdr
                0x00000000        0xe c:/program files/microchip/xc32/v4.21/bin/bin/../../lib/gcc/pic32c/8.3.1/thumb/v7e-m+fp/hard/crti.o
 .xc_stack_usage
                0x00000000       0x26 c:/program files/microchip/xc32/v4.21/bin/bin/../../lib/gcc/pic32c/8.3.1/thumb/v7e-m+fp/hard/crti.o
 .xc_stack_usage
                0x00000000       0x3c c:/program files/microchip/xc32/v4.21/bin/bin/../../lib/gcc/pic32c/8.3.1/thumb/v7e-m+fp/hard/crtbegin.o
 .xc_stack_usage.hdr
                0x00000000        0xe c:/program files/microchip/xc32/v4.21/bin/bin/../../lib/gcc/pic32c/8.3.1/thumb/v7e-m+fp/hard/crtbegin.o
 .xc_stack_usage
                0x00000000       0x2a c:/program files/microchip/xc32/v4.21/bin/bin/../../lib/gcc/pic32c/8.3.1/../../../../pic32c/lib/thumb/v7e-m+fp/hard\libpic32c.a(data_init_wrapper.o)
 .xc_stack_usage.hdr
                0x00000000        0xe c:/program files/microchip/xc32/v4.21/bin/bin/../../lib/gcc/pic32c/8.3.1/../../../../pic32c/lib/thumb/v7e-m+fp/hard\libpic32c.a(data_init_wrapper.o)
 .xc_stack_usage
                0x00000000       0x2f c:/program files/microchip/xc32/v4.21/bin/bin/../../lib/gcc/pic32c/8.3.1/../../../../pic32c/lib/thumb/v7e-m+fp/hard\libpic32c.a(data_init_0_1.o)
 .xc_stack_usage.hdr
                0x00000000        0xe c:/program files/microchip/xc32/v4.21/bin/bin/../../lib/gcc/pic32c/8.3.1/../../../../pic32c/lib/thumb/v7e-m+fp/hard\libpic32c.a(data_init_0_1.o)
 .xc_stack_usage.hdr
                0x00000000        0xe c:/program files/microchip/xc32/v4.21/bin/bin/../../lib/gcc/pic32c/8.3.1/../../../../pic32c/lib/thumb/v7e-m+fp/hard\libm-emfloat.a(__aeabi_dsub.o)
 .xc_stack_usage
                0x00000000       0x1a c:/program files/microchip/xc32/v4.21/bin/bin/../../lib/gcc/pic32c/8.3.1/../../../../pic32c/lib/thumb/v7e-m+fp/hard\libm-emfloat.a(__aeabi_dsub.o)
 .xc_stack_usage.hdr
                0x00000000        0xe c:/program files/microchip/xc32/v4.21/bin/bin/../../lib/gcc/pic32c/8.3.1/../../../../pic32c/lib/thumb/v7e-m+fp/hard\libm-emfloat.a(__aeabi_dmul.o)
 .xc_stack_usage
                0x00000000       0x1a c:/program files/microchip/xc32/v4.21/bin/bin/../../lib/gcc/pic32c/8.3.1/../../../../pic32c/lib/thumb/v7e-m+fp/hard\libm-emfloat.a(__aeabi_dmul.o)
 .xc_stack_usage.hdr
                0x00000000        0xe c:/program files/microchip/xc32/v4.21/bin/bin/../../lib/gcc/pic32c/8.3.1/../../../../pic32c/lib/thumb/v7e-m+fp/hard\libm-emfloat.a(__aeabi_ddiv.o)
 .xc_stack_usage
                0x00000000       0x1a c:/program files/microchip/xc32/v4.21/bin/bin/../../lib/gcc/pic32c/8.3.1/../../../../pic32c/lib/thumb/v7e-m+fp/hard\libm-emfloat.a(__aeabi_ddiv.o)
 .xc_stack_usage.hdr
                0x00000000        0xe c:/program files/microchip/xc32/v4.21/bin/bin/../../lib/gcc/pic32c/8.3.1/../../../../pic32c/lib/thumb/v7e-m+fp/hard\libm-emfloat.a(__aeabi_d2uiz.o)
 .xc_stack_usage
                0x00000000       0x1b c:/program files/microchip/xc32/v4.21/bin/bin/../../lib/gcc/pic32c/8.3.1/../../../../pic32c/lib/thumb/v7e-m+fp/hard\libm-emfloat.a(__aeabi_d2uiz.o)
 .xc_stack_usage.hdr
                0x00000000        0xe c:/program files/microchip/xc32/v4.21/bin/bin/../../lib/gcc/pic32c/8.3.1/../../../../pic32c/lib/thumb/v7e-m+fp/hard\libm-emfloat.a(__aeabi_i2d.o)
 .xc_stack_usage
                0x00000000       0x19 c:/program files/microchip/xc32/v4.21/bin/bin/../../lib/gcc/pic32c/8.3.1/../../../../pic32c/lib/thumb/v7e-m+fp/hard\libm-emfloat.a(__aeabi_i2d.o)
 .xc_stack_usage.hdr
                0x00000000        0xe c:/program files/microchip/xc32/v4.21/bin/bin/../../lib/gcc/pic32c/8.3.1/../../../../pic32c/lib/thumb/v7e-m+fp/hard\libm-emfloat.a(__aeabi_ui2d.o)
 .xc_stack_usage
                0x00000000       0x1a c:/program files/microchip/xc32/v4.21/bin/bin/../../lib/gcc/pic32c/8.3.1/../../../../pic32c/lib/thumb/v7e-m+fp/hard\libm-emfloat.a(__aeabi_ui2d.o)
 .xc_stack_usage.hdr
                0x00000000        0xe c:/program files/microchip/xc32/v4.21/bin/bin/../../lib/gcc/pic32c/8.3.1/../../../../pic32c/lib/thumb/v7e-m+fp/hard\libm-emfloat.a(__aeabi_dadd.o)
 .xc_stack_usage
                0x00000000       0x1a c:/program files/microchip/xc32/v4.21/bin/bin/../../lib/gcc/pic32c/8.3.1/../../../../pic32c/lib/thumb/v7e-m+fp/hard\libm-emfloat.a(__aeabi_dadd.o)
 .xc_stack_usage
                0x00000000       0x34 c:/program files/microchip/xc32/v4.21/bin/bin/../../lib/gcc/pic32c/8.3.1/../../../../pic32c/lib/thumb/v7e-m+fp/hard\libg-musl.a(__libc_start_main.o)
 .xc_stack_usage.hdr
                0x00000000        0xe c:/program files/microchip/xc32/v4.21/bin/bin/../../lib/gcc/pic32c/8.3.1/../../../../pic32c/lib/thumb/v7e-m+fp/hard\libg-musl.a(__libc_start_main.o)
 .xc_stack_usage.hdr
                0x00000000        0xe c:/program files/microchip/xc32/v4.21/bin/bin/../../lib/gcc/pic32c/8.3.1/../../../../pic32c/lib/thumb/v7e-m+fp/hard\libg-musl.a(libc.o)
 .xc_stack_usage
                0x00000000       0x3a c:/program files/microchip/xc32/v4.21/bin/bin/../../lib/gcc/pic32c/8.3.1/../../../../pic32c/lib/thumb/v7e-m+fp/hard\libg-musl.a(__sio_printf_doux.o)
 .xc_stack_usage.hdr
                0x00000000        0xe c:/program files/microchip/xc32/v4.21/bin/bin/../../lib/gcc/pic32c/8.3.1/../../../../pic32c/lib/thumb/v7e-m+fp/hard\libg-musl.a(__sio_printf_doux.o)
 .xc_stack_usage
                0x00000000       0x3c c:/program files/microchip/xc32/v4.21/bin/bin/../../lib/gcc/pic32c/8.3.1/../../../../pic32c/lib/thumb/v7e-m+fp/hard\libg-musl.a(__sio_sprintf_doux.o)
 .xc_stack_usage.hdr
                0x00000000        0xe c:/program files/microchip/xc32/v4.21/bin/bin/../../lib/gcc/pic32c/8.3.1/../../../../pic32c/lib/thumb/v7e-m+fp/hard\libg-musl.a(__sio_sprintf_doux.o)
 .xc_stack_usage
                0x00000000       0x15 c:/program files/microchip/xc32/v4.21/bin/bin/../../lib/gcc/pic32c/8.3.1/../../../../pic32c/lib/thumb/v7e-m+fp/hard\libg-musl.a(__fmt_d.o)
 .xc_stack_usage.hdr
                0x00000000        0xe c:/program files/microchip/xc32/v4.21/bin/bin/../../lib/gcc/pic32c/8.3.1/../../../../pic32c/lib/thumb/v7e-m+fp/hard\libg-musl.a(__fmt_d.o)
 .xc_stack_usage
                0x00000000       0x15 c:/program files/microchip/xc32/v4.21/bin/bin/../../lib/gcc/pic32c/8.3.1/../../../../pic32c/lib/thumb/v7e-m+fp/hard\libg-musl.a(__fmt_o.o)
 .xc_stack_usage.hdr
                0x00000000        0xe c:/program files/microchip/xc32/v4.21/bin/bin/../../lib/gcc/pic32c/8.3.1/../../../../pic32c/lib/thumb/v7e-m+fp/hard\libg-musl.a(__fmt_o.o)
 .xc_stack_usage
                0x00000000       0x15 c:/program files/microchip/xc32/v4.21/bin/bin/../../lib/gcc/pic32c/8.3.1/../../../../pic32c/lib/thumb/v7e-m+fp/hard\libg-musl.a(__fmt_s.o)
 .xc_stack_usage.hdr
                0x00000000        0xe c:/program files/microchip/xc32/v4.21/bin/bin/../../lib/gcc/pic32c/8.3.1/../../../../pic32c/lib/thumb/v7e-m+fp/hard\libg-musl.a(__fmt_s.o)
 .xc_stack_usage
                0x00000000       0x2a c:/program files/microchip/xc32/v4.21/bin/bin/../../lib/gcc/pic32c/8.3.1/../../../../pic32c/lib/thumb/v7e-m+fp/hard\libg-musl.a(__fmt_u.o)
 .xc_stack_usage.hdr
                0x00000000        0xe c:/program files/microchip/xc32/v4.21/bin/bin/../../lib/gcc/pic32c/8.3.1/../../../../pic32c/lib/thumb/v7e-m+fp/hard\libg-musl.a(__fmt_u.o)
 .xc_stack_usage
                0x00000000       0x15 c:/program files/microchip/xc32/v4.21/bin/bin/../../lib/gcc/pic32c/8.3.1/../../../../pic32c/lib/thumb/v7e-m+fp/hard\libg-musl.a(__fmt_x.o)
 .xc_stack_usage.hdr
                0x00000000        0xe c:/program files/microchip/xc32/v4.21/bin/bin/../../lib/gcc/pic32c/8.3.1/../../../../pic32c/lib/thumb/v7e-m+fp/hard\libg-musl.a(__fmt_x.o)
 .xc_stack_usage
                0x00000000       0x17 c:/program files/microchip/xc32/v4.21/bin/bin/../../lib/gcc/pic32c/8.3.1/../../../../pic32c/lib/thumb/v7e-m+fp/hard\libg-musl.a(__pop_int.o)
 .xc_stack_usage.hdr
                0x00000000        0xe c:/program files/microchip/xc32/v4.21/bin/bin/../../lib/gcc/pic32c/8.3.1/../../../../pic32c/lib/thumb/v7e-m+fp/hard\libg-musl.a(__pop_int.o)
 .xc_stack_usage
                0x00000000       0x17 c:/program files/microchip/xc32/v4.21/bin/bin/../../lib/gcc/pic32c/8.3.1/../../../../pic32c/lib/thumb/v7e-m+fp/hard\libg-musl.a(__pop_ptr.o)
 .xc_stack_usage.hdr
                0x00000000        0xe c:/program files/microchip/xc32/v4.21/bin/bin/../../lib/gcc/pic32c/8.3.1/../../../../pic32c/lib/thumb/v7e-m+fp/hard\libg-musl.a(__pop_ptr.o)
 .xc_stack_usage
                0x00000000       0xaf c:/program files/microchip/xc32/v4.21/bin/bin/../../lib/gcc/pic32c/8.3.1/../../../../pic32c/lib/thumb/v7e-m+fp/hard\libg-musl.a(__printf_core.o)
 .xc_stack_usage.hdr
                0x00000000        0xe c:/program files/microchip/xc32/v4.21/bin/bin/../../lib/gcc/pic32c/8.3.1/../../../../pic32c/lib/thumb/v7e-m+fp/hard\libg-musl.a(__printf_core.o)
 .xc_stack_usage
                0x00000000       0x51 c:/program files/microchip/xc32/v4.21/bin/bin/../../lib/gcc/pic32c/8.3.1/../../../../pic32c/lib/thumb/v7e-m+fp/hard\libg-musl.a(stdout.o)
 .xc_stack_usage.hdr
                0x00000000        0xe c:/program files/microchip/xc32/v4.21/bin/bin/../../lib/gcc/pic32c/8.3.1/../../../../pic32c/lib/thumb/v7e-m+fp/hard\libg-musl.a(stdout.o)
 .xc_stack_usage
                0x00000000       0x12 c:/program files/microchip/xc32/v4.21/bin/bin/../../lib/gcc/pic32c/8.3.1/../../../../pic32c/lib/thumb/v7e-m+fp/hard\libg-musl.a(atoi.o)
 .xc_stack_usage.hdr
                0x00000000        0xe c:/program files/microchip/xc32/v4.21/bin/bin/../../lib/gcc/pic32c/8.3.1/../../../../pic32c/lib/thumb/v7e-m+fp/hard\libg-musl.a(atoi.o)
 .xc_stack_usage
                0x00000000       0x14 c:/program files/microchip/xc32/v4.21/bin/bin/../../lib/gcc/pic32c/8.3.1/../../../../pic32c/lib/thumb/v7e-m+fp/hard\libg-musl.a(memcpy.o)
 .xc_stack_usage.hdr
                0x00000000        0xe c:/program files/microchip/xc32/v4.21/bin/bin/../../lib/gcc/pic32c/8.3.1/../../../../pic32c/lib/thumb/v7e-m+fp/hard\libg-musl.a(memcpy.o)
 .xc_stack_usage
                0x00000000       0x14 c:/program files/microchip/xc32/v4.21/bin/bin/../../lib/gcc/pic32c/8.3.1/../../../../pic32c/lib/thumb/v7e-m+fp/hard\libg-musl.a(memset.o)
 .xc_stack_usage.hdr
                0x00000000        0xe c:/program files/microchip/xc32/v4.21/bin/bin/../../lib/gcc/pic32c/8.3.1/../../../../pic32c/lib/thumb/v7e-m+fp/hard\libg-musl.a(memset.o)
 .xc_stack_usage
                0x00000000       0x14 c:/program files/microchip/xc32/v4.21/bin/bin/../../lib/gcc/pic32c/8.3.1/../../../../pic32c/lib/thumb/v7e-m+fp/hard\libg-musl.a(strlen.o)
 .xc_stack_usage.hdr
                0x00000000        0xe c:/program files/microchip/xc32/v4.21/bin/bin/../../lib/gcc/pic32c/8.3.1/../../../../pic32c/lib/thumb/v7e-m+fp/hard\libg-musl.a(strlen.o)
 .xc_stack_usage
                0x00000000       0x14 c:/program files/microchip/xc32/v4.21/bin/bin/../../lib/gcc/pic32c/8.3.1/../../../../pic32c/lib/thumb/v7e-m+fp/hard\libg-musl.a(strstr.o)
 .xc_stack_usage.hdr
                0x00000000        0xe c:/program files/microchip/xc32/v4.21/bin/bin/../../lib/gcc/pic32c/8.3.1/../../../../pic32c/lib/thumb/v7e-m+fp/hard\libg-musl.a(strstr.o)
 .xc_stack_usage
                0x00000000       0x14 c:/program files/microchip/xc32/v4.21/bin/bin/../../lib/gcc/pic32c/8.3.1/../../../../pic32c/lib/thumb/v7e-m+fp/hard\libg-musl.a(strcpy.o)
 .xc_stack_usage.hdr
                0x00000000        0xe c:/program files/microchip/xc32/v4.21/bin/bin/../../lib/gcc/pic32c/8.3.1/../../../../pic32c/lib/thumb/v7e-m+fp/hard\libg-musl.a(strcpy.o)
 .xc_stack_usage
                0x00000000       0x2e c:/program files/microchip/xc32/v4.21/bin/bin/../../lib/gcc/pic32c/8.3.1/../../../../pic32c/lib/thumb/v7e-m+fp/hard\libg-musl.a(tolower.o)
 .xc_stack_usage.hdr
                0x00000000        0xe c:/program files/microchip/xc32/v4.21/bin/bin/../../lib/gcc/pic32c/8.3.1/../../../../pic32c/lib/thumb/v7e-m+fp/hard\libg-musl.a(tolower.o)
 .xc_stack_usage
                0x00000000       0x2e c:/program files/microchip/xc32/v4.21/bin/bin/../../lib/gcc/pic32c/8.3.1/../../../../pic32c/lib/thumb/v7e-m+fp/hard\libg-musl.a(toupper.o)
 .xc_stack_usage.hdr
                0x00000000        0xe c:/program files/microchip/xc32/v4.21/bin/bin/../../lib/gcc/pic32c/8.3.1/../../../../pic32c/lib/thumb/v7e-m+fp/hard\libg-musl.a(toupper.o)
 .xc_stack_usage.hdr
                0x00000000        0xe c:/program files/microchip/xc32/v4.21/bin/bin/../../lib/gcc/pic32c/8.3.1/../../../../pic32c/lib/thumb/v7e-m+fp/hard\libg-musl.a(__environ.o)
 .xc_stack_usage.hdr
                0x00000000        0xe c:/program files/microchip/xc32/v4.21/bin/bin/../../lib/gcc/pic32c/8.3.1/../../../../pic32c/lib/thumb/v7e-m+fp/hard\libg-musl.a(__errno_location.o)
 .xc_stack_usage
                0x00000000       0x18 c:/program files/microchip/xc32/v4.21/bin/bin/../../lib/gcc/pic32c/8.3.1/../../../../pic32c/lib/thumb/v7e-m+fp/hard\libg-musl.a(__int_vfprintf.o)
 .xc_stack_usage.hdr
                0x00000000        0xe c:/program files/microchip/xc32/v4.21/bin/bin/../../lib/gcc/pic32c/8.3.1/../../../../pic32c/lib/thumb/v7e-m+fp/hard\libg-musl.a(__int_vfprintf.o)
 .xc_stack_usage
                0x00000000       0x18 c:/program files/microchip/xc32/v4.21/bin/bin/../../lib/gcc/pic32c/8.3.1/../../../../pic32c/lib/thumb/v7e-m+fp/hard\libg-musl.a(__int_vsprintf.o)
 .xc_stack_usage.hdr
                0x00000000        0xe c:/program files/microchip/xc32/v4.21/bin/bin/../../lib/gcc/pic32c/8.3.1/../../../../pic32c/lib/thumb/v7e-m+fp/hard\libg-musl.a(__int_vsprintf.o)
 .xc_stack_usage
                0x00000000       0x40 c:/program files/microchip/xc32/v4.21/bin/bin/../../lib/gcc/pic32c/8.3.1/../../../../pic32c/lib/thumb/v7e-m+fp/hard\libg-musl.a(__io_init_needed.o)
 .xc_stack_usage.hdr
                0x00000000        0xe c:/program files/microchip/xc32/v4.21/bin/bin/../../lib/gcc/pic32c/8.3.1/../../../../pic32c/lib/thumb/v7e-m+fp/hard\libg-musl.a(__io_init_needed.o)
 .xc_stack_usage
                0x00000000       0x19 c:/program files/microchip/xc32/v4.21/bin/bin/../../lib/gcc/pic32c/8.3.1/../../../../pic32c/lib/thumb/v7e-m+fp/hard\libg-musl.a(__pop_float.o)
 .xc_stack_usage.hdr
                0x00000000        0xe c:/program files/microchip/xc32/v4.21/bin/bin/../../lib/gcc/pic32c/8.3.1/../../../../pic32c/lib/thumb/v7e-m+fp/hard\libg-musl.a(__pop_float.o)
 .xc_stack_usage
                0x00000000       0x14 c:/program files/microchip/xc32/v4.21/bin/bin/../../lib/gcc/pic32c/8.3.1/../../../../pic32c/lib/thumb/v7e-m+fp/hard\libg-musl.a(stpcpy.o)
 .xc_stack_usage.hdr
                0x00000000        0xe c:/program files/microchip/xc32/v4.21/bin/bin/../../lib/gcc/pic32c/8.3.1/../../../../pic32c/lib/thumb/v7e-m+fp/hard\libg-musl.a(stpcpy.o)
 .xc_stack_usage
                0x00000000       0x19 c:/program files/microchip/xc32/v4.21/bin/bin/../../lib/gcc/pic32c/8.3.1/../../../../pic32c/lib/thumb/v7e-m+fp/hard\libg-musl.a(__int_vsnprintf.o)
 .xc_stack_usage.hdr
                0x00000000        0xe c:/program files/microchip/xc32/v4.21/bin/bin/../../lib/gcc/pic32c/8.3.1/../../../../pic32c/lib/thumb/v7e-m+fp/hard\libg-musl.a(__int_vsnprintf.o)
 .xc_stack_usage
                0x00000000       0x2f c:/program files/microchip/xc32/v4.21/bin/bin/../../lib/gcc/pic32c/8.3.1/../../../../pic32c/lib/thumb/v7e-m+fp/hard\libg-musl.a(__init_stdio.o)
 .xc_stack_usage.hdr
                0x00000000        0xe c:/program files/microchip/xc32/v4.21/bin/bin/../../lib/gcc/pic32c/8.3.1/../../../../pic32c/lib/thumb/v7e-m+fp/hard\libg-musl.a(__init_stdio.o)
 .xc_stack_usage
                0x00000000       0x1e c:/program files/microchip/xc32/v4.21/bin/bin/../../lib/gcc/pic32c/8.3.1/../../../../pic32c/lib/thumb/v7e-m+fp/hard\libg-musl.a(__io_file_needed.o)
 .xc_stack_usage.hdr
                0x00000000        0xe c:/program files/microchip/xc32/v4.21/bin/bin/../../lib/gcc/pic32c/8.3.1/../../../../pic32c/lib/thumb/v7e-m+fp/hard\libg-musl.a(__io_file_needed.o)
 .xc_stack_usage
                0x00000000       0x2d c:/program files/microchip/xc32/v4.21/bin/bin/../../lib/gcc/pic32c/8.3.1/../../../../pic32c/lib/thumb/v7e-m+fp/hard\libg-musl.a(__out.o)
 .xc_stack_usage.hdr
                0x00000000        0xe c:/program files/microchip/xc32/v4.21/bin/bin/../../lib/gcc/pic32c/8.3.1/../../../../pic32c/lib/thumb/v7e-m+fp/hard\libg-musl.a(__out.o)
 .xc_stack_usage.hdr
                0x00000000        0xe c:/program files/microchip/xc32/v4.21/bin/bin/../../lib/gcc/pic32c/8.3.1/thumb/v7e-m+fp/hard\libgcc.a(_aeabi_uldivmod.o)
 .xc_stack_usage
                0x00000000       0x1e c:/program files/microchip/xc32/v4.21/bin/bin/../../lib/gcc/pic32c/8.3.1/thumb/v7e-m+fp/hard\libgcc.a(_aeabi_uldivmod.o)
 .xc_stack_usage
                0x00000000       0x1a c:/program files/microchip/xc32/v4.21/bin/bin/../../lib/gcc/pic32c/8.3.1/thumb/v7e-m+fp/hard\libgcc.a(_udivmoddi4.o)
 .xc_stack_usage.hdr
                0x00000000        0xe c:/program files/microchip/xc32/v4.21/bin/bin/../../lib/gcc/pic32c/8.3.1/thumb/v7e-m+fp/hard\libgcc.a(_udivmoddi4.o)
 .xc_stack_usage.hdr
                0x00000000        0xe c:/program files/microchip/xc32/v4.21/bin/bin/../../lib/gcc/pic32c/8.3.1/thumb/v7e-m+fp/hard\libgcc.a(_dvmd_tls.o)
 .xc_stack_usage
                0x00000000       0x36 c:/program files/microchip/xc32/v4.21/bin/bin/../../lib/gcc/pic32c/8.3.1/thumb/v7e-m+fp/hard\libgcc.a(_dvmd_tls.o)
 .xc_stack_usage
                0x00000000       0x13 c:/program files/microchip/xc32/v4.21/bin/bin/../../lib/gcc/pic32c/8.3.1/../../../../pic32c/lib/thumb/v7e-m+fp/hard\libpic32c.a(write.o)
 .xc_stack_usage.hdr
                0x00000000        0xe c:/program files/microchip/xc32/v4.21/bin/bin/../../lib/gcc/pic32c/8.3.1/../../../../pic32c/lib/thumb/v7e-m+fp/hard\libpic32c.a(write.o)
 .xc_stack_usage
                0x00000000       0x17 c:/program files/microchip/xc32/v4.21/bin/bin/../../lib/gcc/pic32c/8.3.1/../../../../pic32c/lib/thumb/v7e-m+fp/hard\libpic32c.a(_mon_putc.o)
 .gnu.warning._mon_putc
                0x00000000        0x0 c:/program files/microchip/xc32/v4.21/bin/bin/../../lib/gcc/pic32c/8.3.1/../../../../pic32c/lib/thumb/v7e-m+fp/hard\libpic32c.a(_mon_putc.o)
 .xc_stack_usage.hdr
                0x00000000        0xe c:/program files/microchip/xc32/v4.21/bin/bin/../../lib/gcc/pic32c/8.3.1/../../../../pic32c/lib/thumb/v7e-m+fp/hard\libpic32c.a(_mon_putc.o)
 .xc_stack_usage.hdr
                0x00000000        0xe c:/program files/microchip/xc32/v4.21/bin/bin/../../lib/gcc/pic32c/8.3.1/thumb/v7e-m+fp/hard/crtend.o
 .xc_stack_usage.hdr
                0x00000000        0xe c:/program files/microchip/xc32/v4.21/bin/bin/../../lib/gcc/pic32c/8.3.1/thumb/v7e-m+fp/hard/crtn.o

Memory Configuration

Name             Origin             Length             Attributes
rom              0x00000000         0x00100000         xrl
ram              0x20000000         0x00040000         xw !r
tcm              0x03000000         0x00000000         xw
bkupram          0x47000000         0x00002000
config_00804000  0x00804000         0x00000004
config_00804004  0x00804004         0x00000004
config_00804008  0x00804008         0x00000004
*default*        0x00000000         0xffffffff

Linker script and memory map

LOAD c:/program files/microchip/xc32/v4.21/bin/bin/../../lib/gcc/pic32c/8.3.1/thumb/v7e-m+fp/hard/crti.o
LOAD c:/program files/microchip/xc32/v4.21/bin/bin/../../lib/gcc/pic32c/8.3.1/thumb/v7e-m+fp/hard/crtbegin.o
LOAD build/Default/debug/examples/driver_examples.o
LOAD build/Default/debug/gcc/system_same54.o
LOAD build/Default/debug/hal/src/hal_atomic.o
LOAD build/Default/debug/hal/src/hal_cache.o
LOAD build/Default/debug/hal/src/hal_delay.o
LOAD build/Default/debug/hal/src/hal_gpio.o
LOAD build/Default/debug/hal/src/hal_init.o
LOAD build/Default/debug/hal/src/hal_io.o
LOAD build/Default/debug/hal/src/hal_sleep.o
LOAD build/Default/debug/hal/src/hal_usart_sync.o
LOAD build/Default/debug/hal/utils/src/utils_assert.o
LOAD build/Default/debug/hal/utils/src/utils_event.o
LOAD build/Default/debug/hal/utils/src/utils_list.o
LOAD build/Default/debug/hal/utils/src/utils_syscalls.o
LOAD build/Default/debug/hpl/cmcc/hpl_cmcc.o
LOAD build/Default/debug/hpl/core/hpl_core_m4.o
LOAD build/Default/debug/hpl/core/hpl_init.o
LOAD build/Default/debug/hpl/dmac/hpl_dmac.o
LOAD build/Default/debug/hpl/gclk/hpl_gclk.o
LOAD build/Default/debug/hpl/mclk/hpl_mclk.o
LOAD build/Default/debug/hpl/osc32kctrl/hpl_osc32kctrl.o
LOAD build/Default/debug/hpl/oscctrl/hpl_oscctrl.o
LOAD build/Default/debug/hpl/pm/hpl_pm.o
LOAD build/Default/debug/hpl/ramecc/hpl_ramecc.o
LOAD build/Default/debug/hpl/sercom/hpl_sercom.o
LOAD build/Default/debug/hpl/tcc/tcc_lite.o
LOAD build/Default/debug/thirdparty/RTOS/freertos/FreeRTOSV10.0.0/Source/portable/GCC/ARM_CM4F/port.o
LOAD build/Default/debug/thirdparty/RTOS/freertos/FreeRTOSV10.0.0/Source/portable/MemMang/heap_1.o
LOAD build/Default/debug/thirdparty/RTOS/freertos/FreeRTOSV10.0.0/Source/croutine.o
LOAD build/Default/debug/thirdparty/RTOS/freertos/FreeRTOSV10.0.0/Source/event_groups.o
LOAD build/Default/debug/thirdparty/RTOS/freertos/FreeRTOSV10.0.0/Source/list.o
LOAD build/Default/debug/thirdparty/RTOS/freertos/FreeRTOSV10.0.0/Source/queue.o
LOAD build/Default/debug/thirdparty/RTOS/freertos/FreeRTOSV10.0.0/Source/stream_buffer.o
LOAD build/Default/debug/thirdparty/RTOS/freertos/FreeRTOSV10.0.0/Source/tasks.o
LOAD build/Default/debug/thirdparty/RTOS/freertos/FreeRTOSV10.0.0/Source/timers.o
LOAD build/Default/debug/thirdparty/RTOS/freertos/FreeRTOSV10.0.0/rtos_port.o
LOAD build/Default/debug/main.o
LOAD build/Default/debug/driver_init.o
LOAD build/Default/debug/rtos_start.o
LOAD build/Default/debug/atmel_start.o
LOAD build/Default/debug/WiFi.o
LOAD build/Default/debug/interrupts.o
                0x00000001                __MPLAB_BUILD = 0x1
                0x00000001                __ICD2RAM = 0x1
                0x00000001                __MPLAB_DEBUG = 0x1
                0x00000001                __DEBUG = 0x1
LOAD C:\Users\Loyola\AppData\Local\Temp\cc65FL0A.o
START GROUP
LOAD c:/program files/microchip/xc32/v4.21/bin/bin/../../lib/gcc/pic32c/8.3.1/../../../../pic32c/lib/thumb/v7e-m+fp/hard\libpic32c.a
LOAD c:/program files/microchip/xc32/v4.21/bin/bin/../../lib/gcc/pic32c/8.3.1/../../../../pic32c/lib/thumb/v7e-m+fp/hard\libm-emfloat.a
LOAD c:/program files/microchip/xc32/v4.21/bin/bin/../../lib/gcc/pic32c/8.3.1/../../../../pic32c/lib/thumb/v7e-m+fp/hard\libg-musl.a
LOAD c:/program files/microchip/xc32/v4.21/bin/bin/../../lib/gcc/pic32c/8.3.1/../../../../pic32c/lib/thumb/v7e-m+fp/hard\libc-musl.a
LOAD c:/program files/microchip/xc32/v4.21/bin/bin/../../lib/gcc/pic32c/8.3.1/../../../../pic32c/lib/thumb/v7e-m+fp/hard\libm-emfloat.a
LOAD c:/program files/microchip/xc32/v4.21/bin/bin/../../lib/gcc/pic32c/8.3.1/thumb/v7e-m+fp/hard\libgcc.a
END GROUP
LOAD c:/program files/microchip/xc32/v4.21/bin/bin/../../lib/gcc/pic32c/8.3.1/thumb/v7e-m+fp/hard/crtend.o
LOAD c:/program files/microchip/xc32/v4.21/bin/bin/../../lib/gcc/pic32c/8.3.1/thumb/v7e-m+fp/hard/crtn.o
                0x00100000                __rom_end = (ORIGIN (rom) + LENGTH (rom))
                0x20040000                __ram_end = (ORIGIN (ram) + LENGTH (ram))

.config_00804000
 *(.config_00804000)

.config_00804004
 *(.config_00804004)

.config_00804008
 *(.config_00804008)

.vectors        0x00000000      0x264
                0x00000000                . = ALIGN (0x4)
                0x00000000                _sfixed = .
 *(.vectors .vectors.* .vectors_default .vectors_default.*)
 .vectors.default
                0x00000000      0x264 C:\Users\Loyola\AppData\Local\Temp\cc65FL0A.o
                0x00000000                exception_table
 *(.isr_vector)
 *(.reset*)
 *(.after_vectors)

.text           0x00000264       0x20
                0x00000264                . = ALIGN (0x4)
 *(.glue_7t)
 .glue_7t       0x00000264        0x0 linker stubs
 *(.glue_7)
 .glue_7        0x00000264        0x0 linker stubs
 *(.gnu.linkonce.r.*)
 *(.ARM.extab* .gnu.linkonce.armextab.*)
 .ARM.extab     0x00000264        0x0 c:/program files/microchip/xc32/v4.21/bin/bin/../../lib/gcc/pic32c/8.3.1/thumb/v7e-m+fp/hard\libgcc.a(_udivmoddi4.o)
                0x00000264                . = ALIGN (0x4)
 *(.init)
 .init          0x00000264        0x4 c:/program files/microchip/xc32/v4.21/bin/bin/../../lib/gcc/pic32c/8.3.1/thumb/v7e-m+fp/hard/crti.o
                0x00000264                _init
 .init          0x00000268        0x8 c:/program files/microchip/xc32/v4.21/bin/bin/../../lib/gcc/pic32c/8.3.1/thumb/v7e-m+fp/hard/crtn.o
                0x00000270                . = ALIGN (0x4)
                0x00000270                __preinit_array_start = .
 *(.preinit_array)
                0x00000270                __preinit_array_end = .
                0x00000270                . = ALIGN (0x4)
                0x00000270                __init_array_start = .
 *(SORT_BY_NAME(.init_array.*))
 *(.init_array)
 .init_array    0x00000270        0x4 c:/program files/microchip/xc32/v4.21/bin/bin/../../lib/gcc/pic32c/8.3.1/thumb/v7e-m+fp/hard/crtbegin.o
                0x00000274                __init_array_end = .
                0x00000274                . = ALIGN (0x4)
 *crtbegin.o(.ctors)
 *(EXCLUDE_FILE(*crtend.o) .ctors)
 *(SORT_BY_NAME(.ctors.*))
 *crtend.o(.ctors)
                0x00000274                . = ALIGN (0x4)
 *(.fini)
 .fini          0x00000274        0x4 c:/program files/microchip/xc32/v4.21/bin/bin/../../lib/gcc/pic32c/8.3.1/thumb/v7e-m+fp/hard/crti.o
                0x00000274                _fini
 .fini          0x00000278        0x8 c:/program files/microchip/xc32/v4.21/bin/bin/../../lib/gcc/pic32c/8.3.1/thumb/v7e-m+fp/hard/crtn.o
                0x00000280                . = ALIGN (0x4)
                0x00000280                __fini_array_start = .
 *(.fini_array)
 .fini_array    0x00000280        0x4 c:/program files/microchip/xc32/v4.21/bin/bin/../../lib/gcc/pic32c/8.3.1/thumb/v7e-m+fp/hard/crtbegin.o
 *(SORT_BY_NAME(.fini_array.*))
                0x00000284                __fini_array_end = .
 *crtbegin.o(.dtors)
 *(EXCLUDE_FILE(*crtend.o) .dtors)
 *(SORT_BY_NAME(.dtors.*))
 *crtend.o(.dtors)
                0x00000284                . = ALIGN (0x4)
                0x00000284                _efixed = .
                [!provide]                PROVIDE (__exidx_start = .)

.ARM.exidx      0x00000284        0x8
 *(.ARM.exidx* .gnu.linkonce.armexidx.*)
 .ARM.exidx     0x00000284        0x8 c:/program files/microchip/xc32/v4.21/bin/bin/../../lib/gcc/pic32c/8.3.1/thumb/v7e-m+fp/hard\libgcc.a(_udivmoddi4.o)
                [!provide]                PROVIDE (__exidx_end = .)
                0x0000028c                . = ALIGN (0x4)
                0x0000028c                _etext = .

.bss            0x20000000      0x264
                0x20000000                . = ALIGN (0x4)
                0x20000000                __bss_start__ = .
                0x20000000                _sbss = .
                0x20000000                _szero = .
 *(COMMON)
 COMMON         0x20000000      0x224 build/Default/debug/hpl/core/hpl_core_m4.o
                0x20000000                _irq_table
 COMMON         0x20000224       0x10 build/Default/debug/hpl/ramecc/hpl_ramecc.o
                0x20000224                device
 COMMON         0x20000234       0x30 build/Default/debug/driver_init.o
                0x20000234                USART_2
                0x20000240                EDBG_COM
                0x2000024c                USART_0
                0x20000258                USART_1
                0x20000264                . = ALIGN (0x4)
                0x20000264                __bss_end__ = .
                0x20000264                _ebss = .
                0x20000264                _ezero = .
                0x20000264                . = ALIGN (0x4)
                0x20000264                _end = .
                0x2003ffff                _ram_end_ = ((ORIGIN (ram) + LENGTH (ram)) - 0x1)

.bkupram_bss
 *(.bkupram_bss .bkupram_bss.*)
 *(.pbss .pbss.*)
OUTPUT(dist/Default/debug/plane-RTOS.X.debug.elf elf32-littlearm)
LOAD stack
LOAD data_init

.ARM.attributes
                0x00000000       0x32
 .ARM.attributes
                0x00000000       0x1e c:/program files/microchip/xc32/v4.21/bin/bin/../../lib/gcc/pic32c/8.3.1/thumb/v7e-m+fp/hard/crti.o
 .ARM.attributes
                0x0000001e       0x34 c:/program files/microchip/xc32/v4.21/bin/bin/../../lib/gcc/pic32c/8.3.1/thumb/v7e-m+fp/hard/crtbegin.o
 .ARM.attributes
                0x00000052       0x34 build/Default/debug/examples/driver_examples.o
 .ARM.attributes
                0x00000086       0x34 build/Default/debug/gcc/system_same54.o
 .ARM.attributes
                0x000000ba       0x34 build/Default/debug/hal/src/hal_atomic.o
 .ARM.attributes
                0x000000ee       0x34 build/Default/debug/hal/src/hal_cache.o
 .ARM.attributes
                0x00000122       0x34 build/Default/debug/hal/src/hal_delay.o
 .ARM.attributes
                0x00000156       0x34 build/Default/debug/hal/src/hal_gpio.o
 .ARM.attributes
                0x0000018a       0x34 build/Default/debug/hal/src/hal_init.o
 .ARM.attributes
                0x000001be       0x34 build/Default/debug/hal/src/hal_io.o
 .ARM.attributes
                0x000001f2       0x34 build/Default/debug/hal/src/hal_sleep.o
 .ARM.attributes
                0x00000226       0x34 build/Default/debug/hal/src/hal_usart_sync.o
 .ARM.attributes
                0x0000025a       0x34 build/Default/debug/hal/utils/src/utils_assert.o
 .ARM.attributes
                0x0000028e       0x34 build/Default/debug/hal/utils/src/utils_event.o
 .ARM.attributes
                0x000002c2       0x34 build/Default/debug/hal/utils/src/utils_list.o
 .ARM.attributes
                0x000002f6       0x34 build/Default/debug/hal/utils/src/utils_syscalls.o
 .ARM.attributes
                0x0000032a       0x34 build/Default/debug/hpl/cmcc/hpl_cmcc.o
 .ARM.attributes
                0x0000035e       0x34 build/Default/debug/hpl/core/hpl_core_m4.o
 .ARM.attributes
                0x00000392       0x34 build/Default/debug/hpl/core/hpl_init.o
 .ARM.attributes
                0x000003c6       0x39 build/Default/debug/hpl/dmac/hpl_dmac.o
 .ARM.attributes
                0x000003ff       0x34 build/Default/debug/hpl/gclk/hpl_gclk.o
 .ARM.attributes
                0x00000433       0x34 build/Default/debug/hpl/mclk/hpl_mclk.o
 .ARM.attributes
                0x00000467       0x34 build/Default/debug/hpl/osc32kctrl/hpl_osc32kctrl.o
 .ARM.attributes
                0x0000049b       0x34 build/Default/debug/hpl/oscctrl/hpl_oscctrl.o
 .ARM.attributes
                0x000004cf       0x34 build/Default/debug/hpl/pm/hpl_pm.o
 .ARM.attributes
                0x00000503       0x34 build/Default/debug/hpl/ramecc/hpl_ramecc.o
 .ARM.attributes
                0x00000537       0x34 build/Default/debug/hpl/sercom/hpl_sercom.o
 .ARM.attributes
                0x0000056b       0x34 build/Default/debug/hpl/tcc/tcc_lite.o
 .ARM.attributes
                0x0000059f       0x34 build/Default/debug/thirdparty/RTOS/freertos/FreeRTOSV10.0.0/Source/portable/GCC/ARM_CM4F/port.o
 .ARM.attributes
                0x000005d3       0x34 build/Default/debug/thirdparty/RTOS/freertos/FreeRTOSV10.0.0/Source/portable/MemMang/heap_1.o
 .ARM.attributes
                0x00000607       0x39 build/Default/debug/thirdparty/RTOS/freertos/FreeRTOSV10.0.0/Source/croutine.o
 .ARM.attributes
                0x00000640       0x34 build/Default/debug/thirdparty/RTOS/freertos/FreeRTOSV10.0.0/Source/event_groups.o
 .ARM.attributes
                0x00000674       0x34 build/Default/debug/thirdparty/RTOS/freertos/FreeRTOSV10.0.0/Source/list.o
 .ARM.attributes
                0x000006a8       0x34 build/Default/debug/thirdparty/RTOS/freertos/FreeRTOSV10.0.0/Source/queue.o
 .ARM.attributes
                0x000006dc       0x34 build/Default/debug/thirdparty/RTOS/freertos/FreeRTOSV10.0.0/Source/stream_buffer.o
 .ARM.attributes
                0x00000710       0x34 build/Default/debug/thirdparty/RTOS/freertos/FreeRTOSV10.0.0/Source/tasks.o
 .ARM.attributes
                0x00000744       0x34 build/Default/debug/thirdparty/RTOS/freertos/FreeRTOSV10.0.0/Source/timers.o
 .ARM.attributes
                0x00000778       0x34 build/Default/debug/thirdparty/RTOS/freertos/FreeRTOSV10.0.0/rtos_port.o
 .ARM.attributes
                0x000007ac       0x34 build/Default/debug/main.o
 .ARM.attributes
                0x000007e0       0x34 build/Default/debug/driver_init.o
 .ARM.attributes
                0x00000814       0x34 build/Default/debug/rtos_start.o
 .ARM.attributes
                0x00000848       0x34 build/Default/debug/atmel_start.o
 .ARM.attributes
                0x0000087c       0x34 build/Default/debug/WiFi.o
 .ARM.attributes
                0x000008b0       0x34 build/Default/debug/interrupts.o
 .ARM.attributes
                0x000008e4       0x34 C:\Users\Loyola\AppData\Local\Temp\cc65FL0A.o
 .ARM.attributes
                0x00000918       0x34 c:/program files/microchip/xc32/v4.21/bin/bin/../../lib/gcc/pic32c/8.3.1/../../../../pic32c/lib/thumb/v7e-m+fp/hard\libpic32c.a(data_init_wrapper.o)
 .ARM.attributes
                0x0000094c       0x34 c:/program files/microchip/xc32/v4.21/bin/bin/../../lib/gcc/pic32c/8.3.1/../../../../pic32c/lib/thumb/v7e-m+fp/hard\libpic32c.a(data_init_0_1.o)
 .ARM.attributes
                0x00000980       0x20 c:/program files/microchip/xc32/v4.21/bin/bin/../../lib/gcc/pic32c/8.3.1/../../../../pic32c/lib/thumb/v7e-m+fp/hard\libm-emfloat.a(__aeabi_dsub.o)
 .ARM.attributes
                0x000009a0       0x20 c:/program files/microchip/xc32/v4.21/bin/bin/../../lib/gcc/pic32c/8.3.1/../../../../pic32c/lib/thumb/v7e-m+fp/hard\libm-emfloat.a(__aeabi_dmul.o)
 .ARM.attributes
                0x000009c0       0x20 c:/program files/microchip/xc32/v4.21/bin/bin/../../lib/gcc/pic32c/8.3.1/../../../../pic32c/lib/thumb/v7e-m+fp/hard\libm-emfloat.a(__aeabi_ddiv.o)
 .ARM.attributes
                0x000009e0       0x20 c:/program files/microchip/xc32/v4.21/bin/bin/../../lib/gcc/pic32c/8.3.1/../../../../pic32c/lib/thumb/v7e-m+fp/hard\libm-emfloat.a(__aeabi_d2uiz.o)
 .ARM.attributes
                0x00000a00       0x20 c:/program files/microchip/xc32/v4.21/bin/bin/../../lib/gcc/pic32c/8.3.1/../../../../pic32c/lib/thumb/v7e-m+fp/hard\libm-emfloat.a(__aeabi_i2d.o)
 .ARM.attributes
                0x00000a20       0x20 c:/program files/microchip/xc32/v4.21/bin/bin/../../lib/gcc/pic32c/8.3.1/../../../../pic32c/lib/thumb/v7e-m+fp/hard\libm-emfloat.a(__aeabi_ui2d.o)
 .ARM.attributes
                0x00000a40       0x20 c:/program files/microchip/xc32/v4.21/bin/bin/../../lib/gcc/pic32c/8.3.1/../../../../pic32c/lib/thumb/v7e-m+fp/hard\libm-emfloat.a(__aeabi_dadd.o)
 .ARM.attributes
                0x00000a60       0x36 c:/program files/microchip/xc32/v4.21/bin/bin/../../lib/gcc/pic32c/8.3.1/../../../../pic32c/lib/thumb/v7e-m+fp/hard\libg-musl.a(__libc_start_main.o)
 .ARM.attributes
                0x00000a96       0x34 c:/program files/microchip/xc32/v4.21/bin/bin/../../lib/gcc/pic32c/8.3.1/../../../../pic32c/lib/thumb/v7e-m+fp/hard\libg-musl.a(libc.o)
 .ARM.attributes
                0x00000aca       0x36 c:/program files/microchip/xc32/v4.21/bin/bin/../../lib/gcc/pic32c/8.3.1/../../../../pic32c/lib/thumb/v7e-m+fp/hard\libg-musl.a(__sio_printf_doux.o)
 .ARM.attributes
                0x00000b00       0x36 c:/program files/microchip/xc32/v4.21/bin/bin/../../lib/gcc/pic32c/8.3.1/../../../../pic32c/lib/thumb/v7e-m+fp/hard\libg-musl.a(__sio_sprintf_doux.o)
 .ARM.attributes
                0x00000b36       0x36 c:/program files/microchip/xc32/v4.21/bin/bin/../../lib/gcc/pic32c/8.3.1/../../../../pic32c/lib/thumb/v7e-m+fp/hard\libg-musl.a(__fmt_d.o)
 .ARM.attributes
                0x00000b6c       0x36 c:/program files/microchip/xc32/v4.21/bin/bin/../../lib/gcc/pic32c/8.3.1/../../../../pic32c/lib/thumb/v7e-m+fp/hard\libg-musl.a(__fmt_o.o)
 .ARM.attributes
                0x00000ba2       0x36 c:/program files/microchip/xc32/v4.21/bin/bin/../../lib/gcc/pic32c/8.3.1/../../../../pic32c/lib/thumb/v7e-m+fp/hard\libg-musl.a(__fmt_s.o)
 .ARM.attributes
                0x00000bd8       0x36 c:/program files/microchip/xc32/v4.21/bin/bin/../../lib/gcc/pic32c/8.3.1/../../../../pic32c/lib/thumb/v7e-m+fp/hard\libg-musl.a(__fmt_u.o)
 .ARM.attributes
                0x00000c0e       0x36 c:/program files/microchip/xc32/v4.21/bin/bin/../../lib/gcc/pic32c/8.3.1/../../../../pic32c/lib/thumb/v7e-m+fp/hard\libg-musl.a(__fmt_x.o)
 .ARM.attributes
                0x00000c44       0x36 c:/program files/microchip/xc32/v4.21/bin/bin/../../lib/gcc/pic32c/8.3.1/../../../../pic32c/lib/thumb/v7e-m+fp/hard\libg-musl.a(__pop_int.o)
 .ARM.attributes
                0x00000c7a       0x36 c:/program files/microchip/xc32/v4.21/bin/bin/../../lib/gcc/pic32c/8.3.1/../../../../pic32c/lib/thumb/v7e-m+fp/hard\libg-musl.a(__pop_ptr.o)
 .ARM.attributes
                0x00000cb0       0x36 c:/program files/microchip/xc32/v4.21/bin/bin/../../lib/gcc/pic32c/8.3.1/../../../../pic32c/lib/thumb/v7e-m+fp/hard\libg-musl.a(__printf_core.o)
 .ARM.attributes
                0x00000ce6       0x36 c:/program files/microchip/xc32/v4.21/bin/bin/../../lib/gcc/pic32c/8.3.1/../../../../pic32c/lib/thumb/v7e-m+fp/hard\libg-musl.a(stdout.o)
 .ARM.attributes
                0x00000d1c       0x36 c:/program files/microchip/xc32/v4.21/bin/bin/../../lib/gcc/pic32c/8.3.1/../../../../pic32c/lib/thumb/v7e-m+fp/hard\libg-musl.a(atoi.o)
 .ARM.attributes
                0x00000d52       0x36 c:/program files/microchip/xc32/v4.21/bin/bin/../../lib/gcc/pic32c/8.3.1/../../../../pic32c/lib/thumb/v7e-m+fp/hard\libg-musl.a(memcpy.o)
 .ARM.attributes
                0x00000d88       0x36 c:/program files/microchip/xc32/v4.21/bin/bin/../../lib/gcc/pic32c/8.3.1/../../../../pic32c/lib/thumb/v7e-m+fp/hard\libg-musl.a(memset.o)
 .ARM.attributes
                0x00000dbe       0x36 c:/program files/microchip/xc32/v4.21/bin/bin/../../lib/gcc/pic32c/8.3.1/../../../../pic32c/lib/thumb/v7e-m+fp/hard\libg-musl.a(strlen.o)
 .ARM.attributes
                0x00000df4       0x36 c:/program files/microchip/xc32/v4.21/bin/bin/../../lib/gcc/pic32c/8.3.1/../../../../pic32c/lib/thumb/v7e-m+fp/hard\libg-musl.a(strstr.o)
 .ARM.attributes
                0x00000e2a       0x36 c:/program files/microchip/xc32/v4.21/bin/bin/../../lib/gcc/pic32c/8.3.1/../../../../pic32c/lib/thumb/v7e-m+fp/hard\libg-musl.a(strcpy.o)
 .ARM.attributes
                0x00000e60       0x36 c:/program files/microchip/xc32/v4.21/bin/bin/../../lib/gcc/pic32c/8.3.1/../../../../pic32c/lib/thumb/v7e-m+fp/hard\libg-musl.a(tolower.o)
 .ARM.attributes
                0x00000e96       0x36 c:/program files/microchip/xc32/v4.21/bin/bin/../../lib/gcc/pic32c/8.3.1/../../../../pic32c/lib/thumb/v7e-m+fp/hard\libg-musl.a(toupper.o)
 .ARM.attributes
                0x00000ecc       0x34 c:/program files/microchip/xc32/v4.21/bin/bin/../../lib/gcc/pic32c/8.3.1/../../../../pic32c/lib/thumb/v7e-m+fp/hard\libg-musl.a(__environ.o)
 .ARM.attributes
                0x00000f00       0x34 c:/program files/microchip/xc32/v4.21/bin/bin/../../lib/gcc/pic32c/8.3.1/../../../../pic32c/lib/thumb/v7e-m+fp/hard\libg-musl.a(__errno_location.o)
 .ARM.attributes
                0x00000f34       0x36 c:/program files/microchip/xc32/v4.21/bin/bin/../../lib/gcc/pic32c/8.3.1/../../../../pic32c/lib/thumb/v7e-m+fp/hard\libg-musl.a(__int_vfprintf.o)
 .ARM.attributes
                0x00000f6a       0x36 c:/program files/microchip/xc32/v4.21/bin/bin/../../lib/gcc/pic32c/8.3.1/../../../../pic32c/lib/thumb/v7e-m+fp/hard\libg-musl.a(__int_vsprintf.o)
 .ARM.attributes
                0x00000fa0       0x36 c:/program files/microchip/xc32/v4.21/bin/bin/../../lib/gcc/pic32c/8.3.1/../../../../pic32c/lib/thumb/v7e-m+fp/hard\libg-musl.a(__io_init_needed.o)
 .ARM.attributes
                0x00000fd6       0x36 c:/program files/microchip/xc32/v4.21/bin/bin/../../lib/gcc/pic32c/8.3.1/../../../../pic32c/lib/thumb/v7e-m+fp/hard\libg-musl.a(__pop_float.o)
 .ARM.attributes
                0x0000100c       0x36 c:/program files/microchip/xc32/v4.21/bin/bin/../../lib/gcc/pic32c/8.3.1/../../../../pic32c/lib/thumb/v7e-m+fp/hard\libg-musl.a(stpcpy.o)
 .ARM.attributes
                0x00001042       0x36 c:/program files/microchip/xc32/v4.21/bin/bin/../../lib/gcc/pic32c/8.3.1/../../../../pic32c/lib/thumb/v7e-m+fp/hard\libg-musl.a(__int_vsnprintf.o)
 .ARM.attributes
                0x00001078       0x36 c:/program files/microchip/xc32/v4.21/bin/bin/../../lib/gcc/pic32c/8.3.1/../../../../pic32c/lib/thumb/v7e-m+fp/hard\libg-musl.a(__init_stdio.o)
 .ARM.attributes
                0x000010ae       0x36 c:/program files/microchip/xc32/v4.21/bin/bin/../../lib/gcc/pic32c/8.3.1/../../../../pic32c/lib/thumb/v7e-m+fp/hard\libg-musl.a(__io_file_needed.o)
 .ARM.attributes
                0x000010e4       0x36 c:/program files/microchip/xc32/v4.21/bin/bin/../../lib/gcc/pic32c/8.3.1/../../../../pic32c/lib/thumb/v7e-m+fp/hard\libg-musl.a(__out.o)
 .ARM.attributes
                0x0000111a       0x1e c:/program files/microchip/xc32/v4.21/bin/bin/../../lib/gcc/pic32c/8.3.1/thumb/v7e-m+fp/hard\libgcc.a(_aeabi_uldivmod.o)
 .ARM.attributes
                0x00001138       0x34 c:/program files/microchip/xc32/v4.21/bin/bin/../../lib/gcc/pic32c/8.3.1/thumb/v7e-m+fp/hard\libgcc.a(_udivmoddi4.o)
 .ARM.attributes
                0x0000116c       0x1e c:/program files/microchip/xc32/v4.21/bin/bin/../../lib/gcc/pic32c/8.3.1/thumb/v7e-m+fp/hard\libgcc.a(_dvmd_tls.o)
 .ARM.attributes
                0x0000118a       0x34 c:/program files/microchip/xc32/v4.21/bin/bin/../../lib/gcc/pic32c/8.3.1/../../../../pic32c/lib/thumb/v7e-m+fp/hard\libpic32c.a(write.o)
 .ARM.attributes
                0x000011be       0x34 c:/program files/microchip/xc32/v4.21/bin/bin/../../lib/gcc/pic32c/8.3.1/../../../../pic32c/lib/thumb/v7e-m+fp/hard\libpic32c.a(_mon_putc.o)
 .ARM.attributes
                0x000011f2       0x32 c:/program files/microchip/xc32/v4.21/bin/bin/../../lib/gcc/pic32c/8.3.1/thumb/v7e-m+fp/hard/crtend.o
 .ARM.attributes
                0x00001224       0x1e c:/program files/microchip/xc32/v4.21/bin/bin/../../lib/gcc/pic32c/8.3.1/thumb/v7e-m+fp/hard/crtn.o

.comment        0x00000000       0x2b
 .comment       0x00000000       0x2b c:/program files/microchip/xc32/v4.21/bin/bin/../../lib/gcc/pic32c/8.3.1/thumb/v7e-m+fp/hard/crtbegin.o
                                 0x2c (size before relaxing)
 .comment       0x0000002b       0x2c build/Default/debug/examples/driver_examples.o
 .comment       0x0000002b       0x2c build/Default/debug/gcc/system_same54.o
 .comment       0x0000002b       0x2c build/Default/debug/hal/src/hal_atomic.o
 .comment       0x0000002b       0x2c build/Default/debug/hal/src/hal_cache.o
 .comment       0x0000002b       0x2c build/Default/debug/hal/src/hal_delay.o
 .comment       0x0000002b       0x2c build/Default/debug/hal/src/hal_gpio.o
 .comment       0x0000002b       0x2c build/Default/debug/hal/src/hal_init.o
 .comment       0x0000002b       0x2c build/Default/debug/hal/src/hal_io.o
 .comment       0x0000002b       0x2c build/Default/debug/hal/src/hal_sleep.o
 .comment       0x0000002b       0x2c build/Default/debug/hal/src/hal_usart_sync.o
 .comment       0x0000002b       0x2c build/Default/debug/hal/utils/src/utils_assert.o
 .comment       0x0000002b       0x2c build/Default/debug/hal/utils/src/utils_event.o
 .comment       0x0000002b       0x2c build/Default/debug/hal/utils/src/utils_list.o
 .comment       0x0000002b       0x2c build/Default/debug/hal/utils/src/utils_syscalls.o
 .comment       0x0000002b       0x2c build/Default/debug/hpl/cmcc/hpl_cmcc.o
 .comment       0x0000002b       0x2c build/Default/debug/hpl/core/hpl_core_m4.o
 .comment       0x0000002b       0x2c build/Default/debug/hpl/core/hpl_init.o
 .comment       0x0000002b       0x2c build/Default/debug/hpl/dmac/hpl_dmac.o
 .comment       0x0000002b       0x2c build/Default/debug/hpl/gclk/hpl_gclk.o
 .comment       0x0000002b       0x2c build/Default/debug/hpl/mclk/hpl_mclk.o
 .comment       0x0000002b       0x2c build/Default/debug/hpl/osc32kctrl/hpl_osc32kctrl.o
 .comment       0x0000002b       0x2c build/Default/debug/hpl/oscctrl/hpl_oscctrl.o
 .comment       0x0000002b       0x2c build/Default/debug/hpl/pm/hpl_pm.o
 .comment       0x0000002b       0x2c build/Default/debug/hpl/ramecc/hpl_ramecc.o
 .comment       0x0000002b       0x2c build/Default/debug/hpl/sercom/hpl_sercom.o
 .comment       0x0000002b       0x2c build/Default/debug/hpl/tcc/tcc_lite.o
 .comment       0x0000002b       0x2c build/Default/debug/thirdparty/RTOS/freertos/FreeRTOSV10.0.0/Source/portable/GCC/ARM_CM4F/port.o
 .comment       0x0000002b       0x2c build/Default/debug/thirdparty/RTOS/freertos/FreeRTOSV10.0.0/Source/portable/MemMang/heap_1.o
 .comment       0x0000002b       0x2c build/Default/debug/thirdparty/RTOS/freertos/FreeRTOSV10.0.0/Source/croutine.o
 .comment       0x0000002b       0x2c build/Default/debug/thirdparty/RTOS/freertos/FreeRTOSV10.0.0/Source/event_groups.o
 .comment       0x0000002b       0x2c build/Default/debug/thirdparty/RTOS/freertos/FreeRTOSV10.0.0/Source/list.o
 .comment       0x0000002b       0x2c build/Default/debug/thirdparty/RTOS/freertos/FreeRTOSV10.0.0/Source/queue.o
 .comment       0x0000002b       0x2c build/Default/debug/thirdparty/RTOS/freertos/FreeRTOSV10.0.0/Source/stream_buffer.o
 .comment       0x0000002b       0x2c build/Default/debug/thirdparty/RTOS/freertos/FreeRTOSV10.0.0/Source/tasks.o
 .comment       0x0000002b       0x2c build/Default/debug/thirdparty/RTOS/freertos/FreeRTOSV10.0.0/Source/timers.o
 .comment       0x0000002b       0x2c build/Default/debug/thirdparty/RTOS/freertos/FreeRTOSV10.0.0/rtos_port.o
 .comment       0x0000002b       0x2c build/Default/debug/main.o
 .comment       0x0000002b       0x2c build/Default/debug/driver_init.o
 .comment       0x0000002b       0x2c build/Default/debug/rtos_start.o
 .comment       0x0000002b       0x2c build/Default/debug/atmel_start.o
 .comment       0x0000002b       0x2c build/Default/debug/WiFi.o
 .comment       0x0000002b       0x2c build/Default/debug/interrupts.o
 .comment       0x0000002b       0x2c C:\Users\Loyola\AppData\Local\Temp\cc65FL0A.o
 .comment       0x0000002b       0x2c c:/program files/microchip/xc32/v4.21/bin/bin/../../lib/gcc/pic32c/8.3.1/../../../../pic32c/lib/thumb/v7e-m+fp/hard\libpic32c.a(data_init_wrapper.o)
 .comment       0x0000002b       0x2c c:/program files/microchip/xc32/v4.21/bin/bin/../../lib/gcc/pic32c/8.3.1/../../../../pic32c/lib/thumb/v7e-m+fp/hard\libpic32c.a(data_init_0_1.o)
 .comment       0x0000002b       0x2c c:/program files/microchip/xc32/v4.21/bin/bin/../../lib/gcc/pic32c/8.3.1/../../../../pic32c/lib/thumb/v7e-m+fp/hard\libg-musl.a(__libc_start_main.o)
 .comment       0x0000002b       0x2c c:/program files/microchip/xc32/v4.21/bin/bin/../../lib/gcc/pic32c/8.3.1/../../../../pic32c/lib/thumb/v7e-m+fp/hard\libg-musl.a(libc.o)
 .comment       0x0000002b       0x2c c:/program files/microchip/xc32/v4.21/bin/bin/../../lib/gcc/pic32c/8.3.1/../../../../pic32c/lib/thumb/v7e-m+fp/hard\libg-musl.a(__sio_printf_doux.o)
 .comment       0x0000002b       0x2c c:/program files/microchip/xc32/v4.21/bin/bin/../../lib/gcc/pic32c/8.3.1/../../../../pic32c/lib/thumb/v7e-m+fp/hard\libg-musl.a(__sio_sprintf_doux.o)
 .comment       0x0000002b       0x2c c:/program files/microchip/xc32/v4.21/bin/bin/../../lib/gcc/pic32c/8.3.1/../../../../pic32c/lib/thumb/v7e-m+fp/hard\libg-musl.a(__fmt_d.o)
 .comment       0x0000002b       0x2c c:/program files/microchip/xc32/v4.21/bin/bin/../../lib/gcc/pic32c/8.3.1/../../../../pic32c/lib/thumb/v7e-m+fp/hard\libg-musl.a(__fmt_o.o)
 .comment       0x0000002b       0x2c c:/program files/microchip/xc32/v4.21/bin/bin/../../lib/gcc/pic32c/8.3.1/../../../../pic32c/lib/thumb/v7e-m+fp/hard\libg-musl.a(__fmt_s.o)
 .comment       0x0000002b       0x2c c:/program files/microchip/xc32/v4.21/bin/bin/../../lib/gcc/pic32c/8.3.1/../../../../pic32c/lib/thumb/v7e-m+fp/hard\libg-musl.a(__fmt_u.o)
 .comment       0x0000002b       0x2c c:/program files/microchip/xc32/v4.21/bin/bin/../../lib/gcc/pic32c/8.3.1/../../../../pic32c/lib/thumb/v7e-m+fp/hard\libg-musl.a(__fmt_x.o)
 .comment       0x0000002b       0x2c c:/program files/microchip/xc32/v4.21/bin/bin/../../lib/gcc/pic32c/8.3.1/../../../../pic32c/lib/thumb/v7e-m+fp/hard\libg-musl.a(__pop_int.o)
 .comment       0x0000002b       0x2c c:/program files/microchip/xc32/v4.21/bin/bin/../../lib/gcc/pic32c/8.3.1/../../../../pic32c/lib/thumb/v7e-m+fp/hard\libg-musl.a(__pop_ptr.o)
 .comment       0x0000002b       0x2c c:/program files/microchip/xc32/v4.21/bin/bin/../../lib/gcc/pic32c/8.3.1/../../../../pic32c/lib/thumb/v7e-m+fp/hard\libg-musl.a(__printf_core.o)
 .comment       0x0000002b       0x2c c:/program files/microchip/xc32/v4.21/bin/bin/../../lib/gcc/pic32c/8.3.1/../../../../pic32c/lib/thumb/v7e-m+fp/hard\libg-musl.a(stdout.o)
 .comment       0x0000002b       0x2c c:/program files/microchip/xc32/v4.21/bin/bin/../../lib/gcc/pic32c/8.3.1/../../../../pic32c/lib/thumb/v7e-m+fp/hard\libg-musl.a(atoi.o)
 .comment       0x0000002b       0x2c c:/program files/microchip/xc32/v4.21/bin/bin/../../lib/gcc/pic32c/8.3.1/../../../../pic32c/lib/thumb/v7e-m+fp/hard\libg-musl.a(memcpy.o)
 .comment       0x0000002b       0x2c c:/program files/microchip/xc32/v4.21/bin/bin/../../lib/gcc/pic32c/8.3.1/../../../../pic32c/lib/thumb/v7e-m+fp/hard\libg-musl.a(memset.o)
 .comment       0x0000002b       0x2c c:/program files/microchip/xc32/v4.21/bin/bin/../../lib/gcc/pic32c/8.3.1/../../../../pic32c/lib/thumb/v7e-m+fp/hard\libg-musl.a(strlen.o)
 .comment       0x0000002b       0x2c c:/program files/microchip/xc32/v4.21/bin/bin/../../lib/gcc/pic32c/8.3.1/../../../../pic32c/lib/thumb/v7e-m+fp/hard\libg-musl.a(strstr.o)
 .comment       0x0000002b       0x2c c:/program files/microchip/xc32/v4.21/bin/bin/../../lib/gcc/pic32c/8.3.1/../../../../pic32c/lib/thumb/v7e-m+fp/hard\libg-musl.a(strcpy.o)
 .comment       0x0000002b       0x2c c:/program files/microchip/xc32/v4.21/bin/bin/../../lib/gcc/pic32c/8.3.1/../../../../pic32c/lib/thumb/v7e-m+fp/hard\libg-musl.a(tolower.o)
 .comment       0x0000002b       0x2c c:/program files/microchip/xc32/v4.21/bin/bin/../../lib/gcc/pic32c/8.3.1/../../../../pic32c/lib/thumb/v7e-m+fp/hard\libg-musl.a(toupper.o)
 .comment       0x0000002b       0x2c c:/program files/microchip/xc32/v4.21/bin/bin/../../lib/gcc/pic32c/8.3.1/../../../../pic32c/lib/thumb/v7e-m+fp/hard\libg-musl.a(__environ.o)
 .comment       0x0000002b       0x2c c:/program files/microchip/xc32/v4.21/bin/bin/../../lib/gcc/pic32c/8.3.1/../../../../pic32c/lib/thumb/v7e-m+fp/hard\libg-musl.a(__errno_location.o)
 .comment       0x0000002b       0x2c c:/program files/microchip/xc32/v4.21/bin/bin/../../lib/gcc/pic32c/8.3.1/../../../../pic32c/lib/thumb/v7e-m+fp/hard\libg-musl.a(__int_vfprintf.o)
 .comment       0x0000002b       0x2c c:/program files/microchip/xc32/v4.21/bin/bin/../../lib/gcc/pic32c/8.3.1/../../../../pic32c/lib/thumb/v7e-m+fp/hard\libg-musl.a(__int_vsprintf.o)
 .comment       0x0000002b       0x2c c:/program files/microchip/xc32/v4.21/bin/bin/../../lib/gcc/pic32c/8.3.1/../../../../pic32c/lib/thumb/v7e-m+fp/hard\libg-musl.a(__io_init_needed.o)
 .comment       0x0000002b       0x2c c:/program files/microchip/xc32/v4.21/bin/bin/../../lib/gcc/pic32c/8.3.1/../../../../pic32c/lib/thumb/v7e-m+fp/hard\libg-musl.a(__pop_float.o)
 .comment       0x0000002b       0x2c c:/program files/microchip/xc32/v4.21/bin/bin/../../lib/gcc/pic32c/8.3.1/../../../../pic32c/lib/thumb/v7e-m+fp/hard\libg-musl.a(stpcpy.o)
 .comment       0x0000002b       0x2c c:/program files/microchip/xc32/v4.21/bin/bin/../../lib/gcc/pic32c/8.3.1/../../../../pic32c/lib/thumb/v7e-m+fp/hard\libg-musl.a(__int_vsnprintf.o)
 .comment       0x0000002b       0x2c c:/program files/microchip/xc32/v4.21/bin/bin/../../lib/gcc/pic32c/8.3.1/../../../../pic32c/lib/thumb/v7e-m+fp/hard\libg-musl.a(__init_stdio.o)
 .comment       0x0000002b       0x2c c:/program files/microchip/xc32/v4.21/bin/bin/../../lib/gcc/pic32c/8.3.1/../../../../pic32c/lib/thumb/v7e-m+fp/hard\libg-musl.a(__io_file_needed.o)
 .comment       0x0000002b       0x2c c:/program files/microchip/xc32/v4.21/bin/bin/../../lib/gcc/pic32c/8.3.1/../../../../pic32c/lib/thumb/v7e-m+fp/hard\libg-musl.a(__out.o)
 .comment       0x0000002b       0x2c c:/program files/microchip/xc32/v4.21/bin/bin/../../lib/gcc/pic32c/8.3.1/thumb/v7e-m+fp/hard\libgcc.a(_udivmoddi4.o)
 .comment       0x0000002b       0x2c c:/program files/microchip/xc32/v4.21/bin/bin/../../lib/gcc/pic32c/8.3.1/../../../../pic32c/lib/thumb/v7e-m+fp/hard\libpic32c.a(write.o)
 .comment       0x0000002b       0x2c c:/program files/microchip/xc32/v4.21/bin/bin/../../lib/gcc/pic32c/8.3.1/../../../../pic32c/lib/thumb/v7e-m+fp/hard\libpic32c.a(_mon_putc.o)
 .comment       0x0000002b       0x2c c:/program files/microchip/xc32/v4.21/bin/bin/../../lib/gcc/pic32c/8.3.1/thumb/v7e-m+fp/hard/crtend.o

.debug_info     0x00000000    0x3a856
 .debug_info    0x00000000      0x518 build/Default/debug/examples/driver_examples.o
 .debug_info    0x00000518      0x2fd build/Default/debug/gcc/system_same54.o
 .debug_info    0x00000815      0x452 build/Default/debug/hal/src/hal_atomic.o
 .debug_info    0x00000c67      0xc50 build/Default/debug/hal/src/hal_cache.o
 .debug_info    0x000018b7      0x386 build/Default/debug/hal/src/hal_delay.o
 .debug_info    0x00001c3d      0x2c4 build/Default/debug/hal/src/hal_gpio.o
 .debug_info    0x00001f01      0x2c4 build/Default/debug/hal/src/hal_init.o
 .debug_info    0x000021c5      0x464 build/Default/debug/hal/src/hal_io.o
 .debug_info    0x00002629      0x309 build/Default/debug/hal/src/hal_sleep.o
 .debug_info    0x00002932      0xd1b build/Default/debug/hal/src/hal_usart_sync.o
 .debug_info    0x0000364d      0x313 build/Default/debug/hal/utils/src/utils_assert.o
 .debug_info    0x00003960      0x621 build/Default/debug/hal/utils/src/utils_event.o
 .debug_info    0x00003f81      0x523 build/Default/debug/hal/utils/src/utils_list.o
 .debug_info    0x000044a4      0x718 build/Default/debug/hal/utils/src/utils_syscalls.o
 .debug_info    0x00004bbc     0x14d8 build/Default/debug/hpl/cmcc/hpl_cmcc.o
 .debug_info    0x00006094     0x1468 build/Default/debug/hpl/core/hpl_core_m4.o
 .debug_info    0x000074fc      0xf8b build/Default/debug/hpl/core/hpl_init.o
 .debug_info    0x00008487      0x283 build/Default/debug/hpl/dmac/hpl_dmac.o
 .debug_info    0x0000870a      0x8bc build/Default/debug/hpl/gclk/hpl_gclk.o
 .debug_info    0x00008fc6      0xe68 build/Default/debug/hpl/mclk/hpl_mclk.o
 .debug_info    0x00009e2e      0xae6 build/Default/debug/hpl/osc32kctrl/hpl_osc32kctrl.o
 .debug_info    0x0000a914     0x165c build/Default/debug/hpl/oscctrl/hpl_oscctrl.o
 .debug_info    0x0000bf70      0x8a5 build/Default/debug/hpl/pm/hpl_pm.o
 .debug_info    0x0000c815     0x151d build/Default/debug/hpl/ramecc/hpl_ramecc.o
 .debug_info    0x0000dd32     0xae86 build/Default/debug/hpl/sercom/hpl_sercom.o
 .debug_info    0x00018bb8     0x28ba build/Default/debug/hpl/tcc/tcc_lite.o
 .debug_info    0x0001b472      0x9ae build/Default/debug/thirdparty/RTOS/freertos/FreeRTOSV10.0.0/Source/portable/GCC/ARM_CM4F/port.o
 .debug_info    0x0001be20      0x48b build/Default/debug/thirdparty/RTOS/freertos/FreeRTOSV10.0.0/Source/portable/MemMang/heap_1.o
 .debug_info    0x0001c2ab      0x2b2 build/Default/debug/thirdparty/RTOS/freertos/FreeRTOSV10.0.0/Source/croutine.o
 .debug_info    0x0001c55d      0xe40 build/Default/debug/thirdparty/RTOS/freertos/FreeRTOSV10.0.0/Source/event_groups.o
 .debug_info    0x0001d39d      0x5e3 build/Default/debug/thirdparty/RTOS/freertos/FreeRTOSV10.0.0/Source/list.o
 .debug_info    0x0001d980     0x207f build/Default/debug/thirdparty/RTOS/freertos/FreeRTOSV10.0.0/Source/queue.o
 .debug_info    0x0001f9ff     0x17b7 build/Default/debug/thirdparty/RTOS/freertos/FreeRTOSV10.0.0/Source/stream_buffer.o
 .debug_info    0x000211b6     0x2938 build/Default/debug/thirdparty/RTOS/freertos/FreeRTOSV10.0.0/Source/tasks.o
 .debug_info    0x00023aee     0x12b6 build/Default/debug/thirdparty/RTOS/freertos/FreeRTOSV10.0.0/Source/timers.o
 .debug_info    0x00024da4      0x67e build/Default/debug/thirdparty/RTOS/freertos/FreeRTOSV10.0.0/rtos_port.o
 .debug_info    0x00025422      0x31b build/Default/debug/main.o
 .debug_info    0x0002573d     0x592f build/Default/debug/driver_init.o
 .debug_info    0x0002b06c      0x319 build/Default/debug/rtos_start.o
 .debug_info    0x0002b385      0x2d9 build/Default/debug/atmel_start.o
 .debug_info    0x0002b65e      0xa6f build/Default/debug/WiFi.o
 .debug_info    0x0002c0cd     0x2fa7 build/Default/debug/interrupts.o
 .debug_info    0x0002f074     0x1bde C:\Users\Loyola\AppData\Local\Temp\cc65FL0A.o
 .debug_info    0x00030c52      0x2a0 c:/program files/microchip/xc32/v4.21/bin/bin/../../lib/gcc/pic32c/8.3.1/../../../../pic32c/lib/thumb/v7e-m+fp/hard\libpic32c.a(data_init_wrapper.o)
 .debug_info    0x00030ef2      0x2a3 c:/program files/microchip/xc32/v4.21/bin/bin/../../lib/gcc/pic32c/8.3.1/../../../../pic32c/lib/thumb/v7e-m+fp/hard\libpic32c.a(data_init_0_1.o)
 .debug_info    0x00031195      0x621 c:/program files/microchip/xc32/v4.21/bin/bin/../../lib/gcc/pic32c/8.3.1/../../../../pic32c/lib/thumb/v7e-m+fp/hard\libg-musl.a(__libc_start_main.o)
 .debug_info    0x000317b6      0x533 c:/program files/microchip/xc32/v4.21/bin/bin/../../lib/gcc/pic32c/8.3.1/../../../../pic32c/lib/thumb/v7e-m+fp/hard\libg-musl.a(libc.o)
 .debug_info    0x00031ce9      0x498 c:/program files/microchip/xc32/v4.21/bin/bin/../../lib/gcc/pic32c/8.3.1/../../../../pic32c/lib/thumb/v7e-m+fp/hard\libg-musl.a(__sio_printf_doux.o)
 .debug_info    0x00032181      0x47e c:/program files/microchip/xc32/v4.21/bin/bin/../../lib/gcc/pic32c/8.3.1/../../../../pic32c/lib/thumb/v7e-m+fp/hard\libg-musl.a(__sio_sprintf_doux.o)
 .debug_info    0x000325ff      0x5c0 c:/program files/microchip/xc32/v4.21/bin/bin/../../lib/gcc/pic32c/8.3.1/../../../../pic32c/lib/thumb/v7e-m+fp/hard\libg-musl.a(__fmt_d.o)
 .debug_info    0x00032bbf      0x591 c:/program files/microchip/xc32/v4.21/bin/bin/../../lib/gcc/pic32c/8.3.1/../../../../pic32c/lib/thumb/v7e-m+fp/hard\libg-musl.a(__fmt_o.o)
 .debug_info    0x00033150      0x535 c:/program files/microchip/xc32/v4.21/bin/bin/../../lib/gcc/pic32c/8.3.1/../../../../pic32c/lib/thumb/v7e-m+fp/hard\libg-musl.a(__fmt_s.o)
 .debug_info    0x00033685      0x65e c:/program files/microchip/xc32/v4.21/bin/bin/../../lib/gcc/pic32c/8.3.1/../../../../pic32c/lib/thumb/v7e-m+fp/hard\libg-musl.a(__fmt_u.o)
 .debug_info    0x00033ce3      0x5ff c:/program files/microchip/xc32/v4.21/bin/bin/../../lib/gcc/pic32c/8.3.1/../../../../pic32c/lib/thumb/v7e-m+fp/hard\libg-musl.a(__fmt_x.o)
 .debug_info    0x000342e2      0x3ff c:/program files/microchip/xc32/v4.21/bin/bin/../../lib/gcc/pic32c/8.3.1/../../../../pic32c/lib/thumb/v7e-m+fp/hard\libg-musl.a(__pop_int.o)
 .debug_info    0x000346e1      0x405 c:/program files/microchip/xc32/v4.21/bin/bin/../../lib/gcc/pic32c/8.3.1/../../../../pic32c/lib/thumb/v7e-m+fp/hard\libg-musl.a(__pop_ptr.o)
 .debug_info    0x00034ae6      0xd31 c:/program files/microchip/xc32/v4.21/bin/bin/../../lib/gcc/pic32c/8.3.1/../../../../pic32c/lib/thumb/v7e-m+fp/hard\libg-musl.a(__printf_core.o)
 .debug_info    0x00035817      0x481 c:/program files/microchip/xc32/v4.21/bin/bin/../../lib/gcc/pic32c/8.3.1/../../../../pic32c/lib/thumb/v7e-m+fp/hard\libg-musl.a(stdout.o)
 .debug_info    0x00035c98      0x2f9 c:/program files/microchip/xc32/v4.21/bin/bin/../../lib/gcc/pic32c/8.3.1/../../../../pic32c/lib/thumb/v7e-m+fp/hard\libg-musl.a(atoi.o)
 .debug_info    0x00035f91      0x2ef c:/program files/microchip/xc32/v4.21/bin/bin/../../lib/gcc/pic32c/8.3.1/../../../../pic32c/lib/thumb/v7e-m+fp/hard\libg-musl.a(memcpy.o)
 .debug_info    0x00036280      0x2b3 c:/program files/microchip/xc32/v4.21/bin/bin/../../lib/gcc/pic32c/8.3.1/../../../../pic32c/lib/thumb/v7e-m+fp/hard\libg-musl.a(memset.o)
 .debug_info    0x00036533      0x2a4 c:/program files/microchip/xc32/v4.21/bin/bin/../../lib/gcc/pic32c/8.3.1/../../../../pic32c/lib/thumb/v7e-m+fp/hard\libg-musl.a(strlen.o)
 .debug_info    0x000367d7      0x2c5 c:/program files/microchip/xc32/v4.21/bin/bin/../../lib/gcc/pic32c/8.3.1/../../../../pic32c/lib/thumb/v7e-m+fp/hard\libg-musl.a(strstr.o)
 .debug_info    0x00036a9c      0x2b2 c:/program files/microchip/xc32/v4.21/bin/bin/../../lib/gcc/pic32c/8.3.1/../../../../pic32c/lib/thumb/v7e-m+fp/hard\libg-musl.a(strcpy.o)
 .debug_info    0x00036d4e      0x351 c:/program files/microchip/xc32/v4.21/bin/bin/../../lib/gcc/pic32c/8.3.1/../../../../pic32c/lib/thumb/v7e-m+fp/hard\libg-musl.a(tolower.o)
 .debug_info    0x0003709f      0x351 c:/program files/microchip/xc32/v4.21/bin/bin/../../lib/gcc/pic32c/8.3.1/../../../../pic32c/lib/thumb/v7e-m+fp/hard\libg-musl.a(toupper.o)
 .debug_info    0x000373f0      0x2ad c:/program files/microchip/xc32/v4.21/bin/bin/../../lib/gcc/pic32c/8.3.1/../../../../pic32c/lib/thumb/v7e-m+fp/hard\libg-musl.a(__environ.o)
 .debug_info    0x0003769d      0x271 c:/program files/microchip/xc32/v4.21/bin/bin/../../lib/gcc/pic32c/8.3.1/../../../../pic32c/lib/thumb/v7e-m+fp/hard\libg-musl.a(__errno_location.o)
 .debug_info    0x0003790e      0x477 c:/program files/microchip/xc32/v4.21/bin/bin/../../lib/gcc/pic32c/8.3.1/../../../../pic32c/lib/thumb/v7e-m+fp/hard\libg-musl.a(__int_vfprintf.o)
 .debug_info    0x00037d85      0x3a2 c:/program files/microchip/xc32/v4.21/bin/bin/../../lib/gcc/pic32c/8.3.1/../../../../pic32c/lib/thumb/v7e-m+fp/hard\libg-musl.a(__int_vsprintf.o)
 .debug_info    0x00038127      0x366 c:/program files/microchip/xc32/v4.21/bin/bin/../../lib/gcc/pic32c/8.3.1/../../../../pic32c/lib/thumb/v7e-m+fp/hard\libg-musl.a(__io_init_needed.o)
 .debug_info    0x0003848d      0x3db c:/program files/microchip/xc32/v4.21/bin/bin/../../lib/gcc/pic32c/8.3.1/../../../../pic32c/lib/thumb/v7e-m+fp/hard\libg-musl.a(__pop_float.o)
 .debug_info    0x00038868      0x2b6 c:/program files/microchip/xc32/v4.21/bin/bin/../../lib/gcc/pic32c/8.3.1/../../../../pic32c/lib/thumb/v7e-m+fp/hard\libg-musl.a(stpcpy.o)
 .debug_info    0x00038b1e      0x4a4 c:/program files/microchip/xc32/v4.21/bin/bin/../../lib/gcc/pic32c/8.3.1/../../../../pic32c/lib/thumb/v7e-m+fp/hard\libg-musl.a(__int_vsnprintf.o)
 .debug_info    0x00038fc2      0x32a c:/program files/microchip/xc32/v4.21/bin/bin/../../lib/gcc/pic32c/8.3.1/../../../../pic32c/lib/thumb/v7e-m+fp/hard\libg-musl.a(__init_stdio.o)
 .debug_info    0x000392ec      0x323 c:/program files/microchip/xc32/v4.21/bin/bin/../../lib/gcc/pic32c/8.3.1/../../../../pic32c/lib/thumb/v7e-m+fp/hard\libg-musl.a(__io_file_needed.o)
 .debug_info    0x0003960f      0x536 c:/program files/microchip/xc32/v4.21/bin/bin/../../lib/gcc/pic32c/8.3.1/../../../../pic32c/lib/thumb/v7e-m+fp/hard\libg-musl.a(__out.o)
 .debug_info    0x00039b45       0x26 c:/program files/microchip/xc32/v4.21/bin/bin/../../lib/gcc/pic32c/8.3.1/thumb/v7e-m+fp/hard\libgcc.a(_aeabi_uldivmod.o)
 .debug_info    0x00039b6b      0x7c0 c:/program files/microchip/xc32/v4.21/bin/bin/../../lib/gcc/pic32c/8.3.1/thumb/v7e-m+fp/hard\libgcc.a(_udivmoddi4.o)
 .debug_info    0x0003a32b       0x26 c:/program files/microchip/xc32/v4.21/bin/bin/../../lib/gcc/pic32c/8.3.1/thumb/v7e-m+fp/hard\libgcc.a(_dvmd_tls.o)
 .debug_info    0x0003a351      0x27f c:/program files/microchip/xc32/v4.21/bin/bin/../../lib/gcc/pic32c/8.3.1/../../../../pic32c/lib/thumb/v7e-m+fp/hard\libpic32c.a(write.o)
 .debug_info    0x0003a5d0      0x286 c:/program files/microchip/xc32/v4.21/bin/bin/../../lib/gcc/pic32c/8.3.1/../../../../pic32c/lib/thumb/v7e-m+fp/hard\libpic32c.a(_mon_putc.o)

.debug_abbrev   0x00000000     0x5edf
 .debug_abbrev  0x00000000       0xe2 build/Default/debug/examples/driver_examples.o
 .debug_abbrev  0x000000e2       0x6a build/Default/debug/gcc/system_same54.o
 .debug_abbrev  0x0000014c      0x14e build/Default/debug/hal/src/hal_atomic.o
 .debug_abbrev  0x0000029a      0x201 build/Default/debug/hal/src/hal_cache.o
 .debug_abbrev  0x0000049b       0xb0 build/Default/debug/hal/src/hal_delay.o
 .debug_abbrev  0x0000054b       0x4a build/Default/debug/hal/src/hal_gpio.o
 .debug_abbrev  0x00000595       0x4a build/Default/debug/hal/src/hal_init.o
 .debug_abbrev  0x000005df       0xdd build/Default/debug/hal/src/hal_io.o
 .debug_abbrev  0x000006bc       0x8d build/Default/debug/hal/src/hal_sleep.o
 .debug_abbrev  0x00000749      0x220 build/Default/debug/hal/src/hal_usart_sync.o
 .debug_abbrev  0x00000969       0x5c build/Default/debug/hal/utils/src/utils_assert.o
 .debug_abbrev  0x000009c5      0x117 build/Default/debug/hal/utils/src/utils_event.o
 .debug_abbrev  0x00000adc       0xd3 build/Default/debug/hal/utils/src/utils_list.o
 .debug_abbrev  0x00000baf      0x134 build/Default/debug/hal/utils/src/utils_syscalls.o
 .debug_abbrev  0x00000ce3      0x27d build/Default/debug/hpl/cmcc/hpl_cmcc.o
 .debug_abbrev  0x00000f60      0x2b7 build/Default/debug/hpl/core/hpl_core_m4.o
 .debug_abbrev  0x00001217      0x177 build/Default/debug/hpl/core/hpl_init.o
 .debug_abbrev  0x0000138e       0x1b build/Default/debug/hpl/dmac/hpl_dmac.o
 .debug_abbrev  0x000013a9      0x159 build/Default/debug/hpl/gclk/hpl_gclk.o
 .debug_abbrev  0x00001502      0x191 build/Default/debug/hpl/mclk/hpl_mclk.o
 .debug_abbrev  0x00001693      0x1b0 build/Default/debug/hpl/osc32kctrl/hpl_osc32kctrl.o
 .debug_abbrev  0x00001843      0x1da build/Default/debug/hpl/oscctrl/hpl_oscctrl.o
 .debug_abbrev  0x00001a1d      0x15c build/Default/debug/hpl/pm/hpl_pm.o
 .debug_abbrev  0x00001b79      0x23f build/Default/debug/hpl/ramecc/hpl_ramecc.o
 .debug_abbrev  0x00001db8      0x407 build/Default/debug/hpl/sercom/hpl_sercom.o
 .debug_abbrev  0x000021bf      0x1f2 build/Default/debug/hpl/tcc/tcc_lite.o
 .debug_abbrev  0x000023b1      0x242 build/Default/debug/thirdparty/RTOS/freertos/FreeRTOSV10.0.0/Source/portable/GCC/ARM_CM4F/port.o
 .debug_abbrev  0x000025f3      0x134 build/Default/debug/thirdparty/RTOS/freertos/FreeRTOSV10.0.0/Source/portable/MemMang/heap_1.o
 .debug_abbrev  0x00002727       0x1b build/Default/debug/thirdparty/RTOS/freertos/FreeRTOSV10.0.0/Source/croutine.o
 .debug_abbrev  0x00002742      0x287 build/Default/debug/thirdparty/RTOS/freertos/FreeRTOSV10.0.0/Source/event_groups.o
 .debug_abbrev  0x000029c9      0x126 build/Default/debug/thirdparty/RTOS/freertos/FreeRTOSV10.0.0/Source/list.o
 .debug_abbrev  0x00002aef      0x26b build/Default/debug/thirdparty/RTOS/freertos/FreeRTOSV10.0.0/Source/queue.o
 .debug_abbrev  0x00002d5a      0x2cd build/Default/debug/thirdparty/RTOS/freertos/FreeRTOSV10.0.0/Source/stream_buffer.o
 .debug_abbrev  0x00003027      0x334 build/Default/debug/thirdparty/RTOS/freertos/FreeRTOSV10.0.0/Source/tasks.o
 .debug_abbrev  0x0000335b      0x274 build/Default/debug/thirdparty/RTOS/freertos/FreeRTOSV10.0.0/Source/timers.o
 .debug_abbrev  0x000035cf       0xd6 build/Default/debug/thirdparty/RTOS/freertos/FreeRTOSV10.0.0/rtos_port.o
 .debug_abbrev  0x000036a5       0x73 build/Default/debug/main.o
 .debug_abbrev  0x00003718      0x2e8 build/Default/debug/driver_init.o
 .debug_abbrev  0x00003a00       0x60 build/Default/debug/rtos_start.o
 .debug_abbrev  0x00003a60       0x5d build/Default/debug/atmel_start.o
 .debug_abbrev  0x00003abd      0x20d build/Default/debug/WiFi.o
 .debug_abbrev  0x00003cca      0x203 build/Default/debug/interrupts.o
 .debug_abbrev  0x00003ecd      0x1ea C:\Users\Loyola\AppData\Local\Temp\cc65FL0A.o
 .debug_abbrev  0x000040b7       0x2b c:/program files/microchip/xc32/v4.21/bin/bin/../../lib/gcc/pic32c/8.3.1/../../../../pic32c/lib/thumb/v7e-m+fp/hard\libpic32c.a(data_init_wrapper.o)
 .debug_abbrev  0x000040e2       0x2e c:/program files/microchip/xc32/v4.21/bin/bin/../../lib/gcc/pic32c/8.3.1/../../../../pic32c/lib/thumb/v7e-m+fp/hard\libpic32c.a(data_init_0_1.o)
 .debug_abbrev  0x00004110      0x117 c:/program files/microchip/xc32/v4.21/bin/bin/../../lib/gcc/pic32c/8.3.1/../../../../pic32c/lib/thumb/v7e-m+fp/hard\libg-musl.a(__libc_start_main.o)
 .debug_abbrev  0x00004227       0xb8 c:/program files/microchip/xc32/v4.21/bin/bin/../../lib/gcc/pic32c/8.3.1/../../../../pic32c/lib/thumb/v7e-m+fp/hard\libg-musl.a(libc.o)
 .debug_abbrev  0x000042df      0x145 c:/program files/microchip/xc32/v4.21/bin/bin/../../lib/gcc/pic32c/8.3.1/../../../../pic32c/lib/thumb/v7e-m+fp/hard\libg-musl.a(__sio_printf_doux.o)
 .debug_abbrev  0x00004424      0x12e c:/program files/microchip/xc32/v4.21/bin/bin/../../lib/gcc/pic32c/8.3.1/../../../../pic32c/lib/thumb/v7e-m+fp/hard\libg-musl.a(__sio_sprintf_doux.o)
 .debug_abbrev  0x00004552      0x120 c:/program files/microchip/xc32/v4.21/bin/bin/../../lib/gcc/pic32c/8.3.1/../../../../pic32c/lib/thumb/v7e-m+fp/hard\libg-musl.a(__fmt_d.o)
 .debug_abbrev  0x00004672      0x120 c:/program files/microchip/xc32/v4.21/bin/bin/../../lib/gcc/pic32c/8.3.1/../../../../pic32c/lib/thumb/v7e-m+fp/hard\libg-musl.a(__fmt_o.o)
 .debug_abbrev  0x00004792      0x10b c:/program files/microchip/xc32/v4.21/bin/bin/../../lib/gcc/pic32c/8.3.1/../../../../pic32c/lib/thumb/v7e-m+fp/hard\libg-musl.a(__fmt_s.o)
 .debug_abbrev  0x0000489d      0x163 c:/program files/microchip/xc32/v4.21/bin/bin/../../lib/gcc/pic32c/8.3.1/../../../../pic32c/lib/thumb/v7e-m+fp/hard\libg-musl.a(__fmt_u.o)
 .debug_abbrev  0x00004a00      0x10f c:/program files/microchip/xc32/v4.21/bin/bin/../../lib/gcc/pic32c/8.3.1/../../../../pic32c/lib/thumb/v7e-m+fp/hard\libg-musl.a(__fmt_x.o)
 .debug_abbrev  0x00004b0f       0xbd c:/program files/microchip/xc32/v4.21/bin/bin/../../lib/gcc/pic32c/8.3.1/../../../../pic32c/lib/thumb/v7e-m+fp/hard\libg-musl.a(__pop_int.o)
 .debug_abbrev  0x00004bcc       0xce c:/program files/microchip/xc32/v4.21/bin/bin/../../lib/gcc/pic32c/8.3.1/../../../../pic32c/lib/thumb/v7e-m+fp/hard\libg-musl.a(__pop_ptr.o)
 .debug_abbrev  0x00004c9a      0x2c5 c:/program files/microchip/xc32/v4.21/bin/bin/../../lib/gcc/pic32c/8.3.1/../../../../pic32c/lib/thumb/v7e-m+fp/hard\libg-musl.a(__printf_core.o)
 .debug_abbrev  0x00004f5f      0x135 c:/program files/microchip/xc32/v4.21/bin/bin/../../lib/gcc/pic32c/8.3.1/../../../../pic32c/lib/thumb/v7e-m+fp/hard\libg-musl.a(stdout.o)
 .debug_abbrev  0x00005094       0xbb c:/program files/microchip/xc32/v4.21/bin/bin/../../lib/gcc/pic32c/8.3.1/../../../../pic32c/lib/thumb/v7e-m+fp/hard\libg-musl.a(atoi.o)
 .debug_abbrev  0x0000514f       0x9c c:/program files/microchip/xc32/v4.21/bin/bin/../../lib/gcc/pic32c/8.3.1/../../../../pic32c/lib/thumb/v7e-m+fp/hard\libg-musl.a(memcpy.o)
 .debug_abbrev  0x000051eb       0x97 c:/program files/microchip/xc32/v4.21/bin/bin/../../lib/gcc/pic32c/8.3.1/../../../../pic32c/lib/thumb/v7e-m+fp/hard\libg-musl.a(memset.o)
 .debug_abbrev  0x00005282       0x86 c:/program files/microchip/xc32/v4.21/bin/bin/../../lib/gcc/pic32c/8.3.1/../../../../pic32c/lib/thumb/v7e-m+fp/hard\libg-musl.a(strlen.o)
 .debug_abbrev  0x00005308       0x97 c:/program files/microchip/xc32/v4.21/bin/bin/../../lib/gcc/pic32c/8.3.1/../../../../pic32c/lib/thumb/v7e-m+fp/hard\libg-musl.a(strstr.o)
 .debug_abbrev  0x0000539f       0x8e c:/program files/microchip/xc32/v4.21/bin/bin/../../lib/gcc/pic32c/8.3.1/../../../../pic32c/lib/thumb/v7e-m+fp/hard\libg-musl.a(strcpy.o)
 .debug_abbrev  0x0000542d       0xfd c:/program files/microchip/xc32/v4.21/bin/bin/../../lib/gcc/pic32c/8.3.1/../../../../pic32c/lib/thumb/v7e-m+fp/hard\libg-musl.a(tolower.o)
 .debug_abbrev  0x0000552a       0xfd c:/program files/microchip/xc32/v4.21/bin/bin/../../lib/gcc/pic32c/8.3.1/../../../../pic32c/lib/thumb/v7e-m+fp/hard\libg-musl.a(toupper.o)
 .debug_abbrev  0x00005627       0x57 c:/program files/microchip/xc32/v4.21/bin/bin/../../lib/gcc/pic32c/8.3.1/../../../../pic32c/lib/thumb/v7e-m+fp/hard\libg-musl.a(__environ.o)
 .debug_abbrev  0x0000567e       0x2e c:/program files/microchip/xc32/v4.21/bin/bin/../../lib/gcc/pic32c/8.3.1/../../../../pic32c/lib/thumb/v7e-m+fp/hard\libg-musl.a(__errno_location.o)
 .debug_abbrev  0x000056ac      0x111 c:/program files/microchip/xc32/v4.21/bin/bin/../../lib/gcc/pic32c/8.3.1/../../../../pic32c/lib/thumb/v7e-m+fp/hard\libg-musl.a(__int_vfprintf.o)
 .debug_abbrev  0x000057bd       0xc3 c:/program files/microchip/xc32/v4.21/bin/bin/../../lib/gcc/pic32c/8.3.1/../../../../pic32c/lib/thumb/v7e-m+fp/hard\libg-musl.a(__int_vsprintf.o)
 .debug_abbrev  0x00005880       0x79 c:/program files/microchip/xc32/v4.21/bin/bin/../../lib/gcc/pic32c/8.3.1/../../../../pic32c/lib/thumb/v7e-m+fp/hard\libg-musl.a(__io_init_needed.o)
 .debug_abbrev  0x000058f9       0xbd c:/program files/microchip/xc32/v4.21/bin/bin/../../lib/gcc/pic32c/8.3.1/../../../../pic32c/lib/thumb/v7e-m+fp/hard\libg-musl.a(__pop_float.o)
 .debug_abbrev  0x000059b6       0x63 c:/program files/microchip/xc32/v4.21/bin/bin/../../lib/gcc/pic32c/8.3.1/../../../../pic32c/lib/thumb/v7e-m+fp/hard\libg-musl.a(stpcpy.o)
 .debug_abbrev  0x00005a19      0x127 c:/program files/microchip/xc32/v4.21/bin/bin/../../lib/gcc/pic32c/8.3.1/../../../../pic32c/lib/thumb/v7e-m+fp/hard\libg-musl.a(__int_vsnprintf.o)
 .debug_abbrev  0x00005b40       0x5a c:/program files/microchip/xc32/v4.21/bin/bin/../../lib/gcc/pic32c/8.3.1/../../../../pic32c/lib/thumb/v7e-m+fp/hard\libg-musl.a(__init_stdio.o)
 .debug_abbrev  0x00005b9a       0x5f c:/program files/microchip/xc32/v4.21/bin/bin/../../lib/gcc/pic32c/8.3.1/../../../../pic32c/lib/thumb/v7e-m+fp/hard\libg-musl.a(__io_file_needed.o)
 .debug_abbrev  0x00005bf9      0x170 c:/program files/microchip/xc32/v4.21/bin/bin/../../lib/gcc/pic32c/8.3.1/../../../../pic32c/lib/thumb/v7e-m+fp/hard\libg-musl.a(__out.o)
 .debug_abbrev  0x00005d69       0x14 c:/program files/microchip/xc32/v4.21/bin/bin/../../lib/gcc/pic32c/8.3.1/thumb/v7e-m+fp/hard\libgcc.a(_aeabi_uldivmod.o)
 .debug_abbrev  0x00005d7d       0xf2 c:/program files/microchip/xc32/v4.21/bin/bin/../../lib/gcc/pic32c/8.3.1/thumb/v7e-m+fp/hard\libgcc.a(_udivmoddi4.o)
 .debug_abbrev  0x00005e6f       0x14 c:/program files/microchip/xc32/v4.21/bin/bin/../../lib/gcc/pic32c/8.3.1/thumb/v7e-m+fp/hard\libgcc.a(_dvmd_tls.o)
 .debug_abbrev  0x00005e83       0x2e c:/program files/microchip/xc32/v4.21/bin/bin/../../lib/gcc/pic32c/8.3.1/../../../../pic32c/lib/thumb/v7e-m+fp/hard\libpic32c.a(write.o)
 .debug_abbrev  0x00005eb1       0x2e c:/program files/microchip/xc32/v4.21/bin/bin/../../lib/gcc/pic32c/8.3.1/../../../../pic32c/lib/thumb/v7e-m+fp/hard\libpic32c.a(_mon_putc.o)

.debug_loc      0x00000000    0x104e3
 .debug_loc     0x00000000      0x140 build/Default/debug/examples/driver_examples.o
 .debug_loc     0x00000140       0x88 build/Default/debug/gcc/system_same54.o
 .debug_loc     0x000001c8       0xfc build/Default/debug/hal/src/hal_atomic.o
 .debug_loc     0x000002c4      0x364 build/Default/debug/hal/src/hal_cache.o
 .debug_loc     0x00000628      0x134 build/Default/debug/hal/src/hal_delay.o
 .debug_loc     0x0000075c       0x44 build/Default/debug/hal/src/hal_gpio.o
 .debug_loc     0x000007a0       0x44 build/Default/debug/hal/src/hal_init.o
 .debug_loc     0x000007e4       0xe4 build/Default/debug/hal/src/hal_io.o
 .debug_loc     0x000008c8       0x94 build/Default/debug/hal/src/hal_sleep.o
 .debug_loc     0x0000095c      0x5a0 build/Default/debug/hal/src/hal_usart_sync.o
 .debug_loc     0x00000efc       0x5c build/Default/debug/hal/utils/src/utils_assert.o
 .debug_loc     0x00000f58      0x1a8 build/Default/debug/hal/utils/src/utils_event.o
 .debug_loc     0x00001100      0x228 build/Default/debug/hal/utils/src/utils_list.o
 .debug_loc     0x00001328      0x300 build/Default/debug/hal/utils/src/utils_syscalls.o
 .debug_loc     0x00001628      0xa40 build/Default/debug/hpl/cmcc/hpl_cmcc.o
 .debug_loc     0x00002068      0x640 build/Default/debug/hpl/core/hpl_core_m4.o
 .debug_loc     0x000026a8       0x88 build/Default/debug/hpl/core/hpl_init.o
 .debug_loc     0x00002730      0x128 build/Default/debug/hpl/gclk/hpl_gclk.o
 .debug_loc     0x00002858       0xac build/Default/debug/hpl/mclk/hpl_mclk.o
 .debug_loc     0x00002904      0x164 build/Default/debug/hpl/osc32kctrl/hpl_osc32kctrl.o
 .debug_loc     0x00002a68      0x164 build/Default/debug/hpl/oscctrl/hpl_oscctrl.o
 .debug_loc     0x00002bcc      0x108 build/Default/debug/hpl/pm/hpl_pm.o
 .debug_loc     0x00002cd4      0x3ac build/Default/debug/hpl/ramecc/hpl_ramecc.o
 .debug_loc     0x00003080     0x5ea6 build/Default/debug/hpl/sercom/hpl_sercom.o
 .debug_loc     0x00008f26      0x224 build/Default/debug/hpl/tcc/tcc_lite.o
 .debug_loc     0x0000914a      0x30c build/Default/debug/thirdparty/RTOS/freertos/FreeRTOSV10.0.0/Source/portable/GCC/ARM_CM4F/port.o
 .debug_loc     0x00009456      0x134 build/Default/debug/thirdparty/RTOS/freertos/FreeRTOSV10.0.0/Source/portable/MemMang/heap_1.o
 .debug_loc     0x0000958a      0x3f4 build/Default/debug/thirdparty/RTOS/freertos/FreeRTOSV10.0.0/Source/event_groups.o
 .debug_loc     0x0000997e      0x1cc build/Default/debug/thirdparty/RTOS/freertos/FreeRTOSV10.0.0/Source/list.o
 .debug_loc     0x00009b4a      0xc40 build/Default/debug/thirdparty/RTOS/freertos/FreeRTOSV10.0.0/Source/queue.o
 .debug_loc     0x0000a78a      0x78b build/Default/debug/thirdparty/RTOS/freertos/FreeRTOSV10.0.0/Source/stream_buffer.o
 .debug_loc     0x0000af15     0x111e build/Default/debug/thirdparty/RTOS/freertos/FreeRTOSV10.0.0/Source/tasks.o
 .debug_loc     0x0000c033      0x6f8 build/Default/debug/thirdparty/RTOS/freertos/FreeRTOSV10.0.0/Source/timers.o
 .debug_loc     0x0000c72b      0x184 build/Default/debug/thirdparty/RTOS/freertos/FreeRTOSV10.0.0/rtos_port.o
 .debug_loc     0x0000c8af       0x2c build/Default/debug/main.o
 .debug_loc     0x0000c8db      0x7e4 build/Default/debug/driver_init.o
 .debug_loc     0x0000d0bf       0x44 build/Default/debug/rtos_start.o
 .debug_loc     0x0000d103       0x2c build/Default/debug/atmel_start.o
 .debug_loc     0x0000d12f      0x3c4 build/Default/debug/WiFi.o
 .debug_loc     0x0000d4f3      0x288 build/Default/debug/interrupts.o
 .debug_loc     0x0000d77b       0x14 c:/program files/microchip/xc32/v4.21/bin/bin/../../lib/gcc/pic32c/8.3.1/../../../../pic32c/lib/thumb/v7e-m+fp/hard\libpic32c.a(data_init_0_1.o)
 .debug_loc     0x0000d78f       0x51 c:/program files/microchip/xc32/v4.21/bin/bin/../../lib/gcc/pic32c/8.3.1/../../../../pic32c/lib/thumb/v7e-m+fp/hard\libg-musl.a(__libc_start_main.o)
 .debug_loc     0x0000d7e0       0x91 c:/program files/microchip/xc32/v4.21/bin/bin/../../lib/gcc/pic32c/8.3.1/../../../../pic32c/lib/thumb/v7e-m+fp/hard\libg-musl.a(__sio_printf_doux.o)
 .debug_loc     0x0000d871       0xb6 c:/program files/microchip/xc32/v4.21/bin/bin/../../lib/gcc/pic32c/8.3.1/../../../../pic32c/lib/thumb/v7e-m+fp/hard\libg-musl.a(__sio_sprintf_doux.o)
 .debug_loc     0x0000d927      0x1ef c:/program files/microchip/xc32/v4.21/bin/bin/../../lib/gcc/pic32c/8.3.1/../../../../pic32c/lib/thumb/v7e-m+fp/hard\libg-musl.a(__fmt_d.o)
 .debug_loc     0x0000db16      0x10a c:/program files/microchip/xc32/v4.21/bin/bin/../../lib/gcc/pic32c/8.3.1/../../../../pic32c/lib/thumb/v7e-m+fp/hard\libg-musl.a(__fmt_o.o)
 .debug_loc     0x0000dc20      0x157 c:/program files/microchip/xc32/v4.21/bin/bin/../../lib/gcc/pic32c/8.3.1/../../../../pic32c/lib/thumb/v7e-m+fp/hard\libg-musl.a(__fmt_s.o)
 .debug_loc     0x0000dd77      0x2a2 c:/program files/microchip/xc32/v4.21/bin/bin/../../lib/gcc/pic32c/8.3.1/../../../../pic32c/lib/thumb/v7e-m+fp/hard\libg-musl.a(__fmt_u.o)
 .debug_loc     0x0000e019      0x2a9 c:/program files/microchip/xc32/v4.21/bin/bin/../../lib/gcc/pic32c/8.3.1/../../../../pic32c/lib/thumb/v7e-m+fp/hard\libg-musl.a(__fmt_x.o)
 .debug_loc     0x0000e2c2      0x2f5 c:/program files/microchip/xc32/v4.21/bin/bin/../../lib/gcc/pic32c/8.3.1/../../../../pic32c/lib/thumb/v7e-m+fp/hard\libg-musl.a(__pop_int.o)
 .debug_loc     0x0000e5b7      0x1db c:/program files/microchip/xc32/v4.21/bin/bin/../../lib/gcc/pic32c/8.3.1/../../../../pic32c/lib/thumb/v7e-m+fp/hard\libg-musl.a(__pop_ptr.o)
 .debug_loc     0x0000e792      0x5e9 c:/program files/microchip/xc32/v4.21/bin/bin/../../lib/gcc/pic32c/8.3.1/../../../../pic32c/lib/thumb/v7e-m+fp/hard\libg-musl.a(__printf_core.o)
 .debug_loc     0x0000ed7b       0x20 c:/program files/microchip/xc32/v4.21/bin/bin/../../lib/gcc/pic32c/8.3.1/../../../../pic32c/lib/thumb/v7e-m+fp/hard\libg-musl.a(stdout.o)
 .debug_loc     0x0000ed9b       0xd8 c:/program files/microchip/xc32/v4.21/bin/bin/../../lib/gcc/pic32c/8.3.1/../../../../pic32c/lib/thumb/v7e-m+fp/hard\libg-musl.a(atoi.o)
 .debug_loc     0x0000ee73       0xe5 c:/program files/microchip/xc32/v4.21/bin/bin/../../lib/gcc/pic32c/8.3.1/../../../../pic32c/lib/thumb/v7e-m+fp/hard\libg-musl.a(memcpy.o)
 .debug_loc     0x0000ef58       0x56 c:/program files/microchip/xc32/v4.21/bin/bin/../../lib/gcc/pic32c/8.3.1/../../../../pic32c/lib/thumb/v7e-m+fp/hard\libg-musl.a(memset.o)
 .debug_loc     0x0000efae       0x47 c:/program files/microchip/xc32/v4.21/bin/bin/../../lib/gcc/pic32c/8.3.1/../../../../pic32c/lib/thumb/v7e-m+fp/hard\libg-musl.a(strlen.o)
 .debug_loc     0x0000eff5       0xa7 c:/program files/microchip/xc32/v4.21/bin/bin/../../lib/gcc/pic32c/8.3.1/../../../../pic32c/lib/thumb/v7e-m+fp/hard\libg-musl.a(strstr.o)
 .debug_loc     0x0000f09c       0x67 c:/program files/microchip/xc32/v4.21/bin/bin/../../lib/gcc/pic32c/8.3.1/../../../../pic32c/lib/thumb/v7e-m+fp/hard\libg-musl.a(strcpy.o)
 .debug_loc     0x0000f103       0x4a c:/program files/microchip/xc32/v4.21/bin/bin/../../lib/gcc/pic32c/8.3.1/../../../../pic32c/lib/thumb/v7e-m+fp/hard\libg-musl.a(tolower.o)
 .debug_loc     0x0000f14d       0x4a c:/program files/microchip/xc32/v4.21/bin/bin/../../lib/gcc/pic32c/8.3.1/../../../../pic32c/lib/thumb/v7e-m+fp/hard\libg-musl.a(toupper.o)
 .debug_loc     0x0000f197       0x88 c:/program files/microchip/xc32/v4.21/bin/bin/../../lib/gcc/pic32c/8.3.1/../../../../pic32c/lib/thumb/v7e-m+fp/hard\libg-musl.a(__int_vfprintf.o)
 .debug_loc     0x0000f21f       0x6c c:/program files/microchip/xc32/v4.21/bin/bin/../../lib/gcc/pic32c/8.3.1/../../../../pic32c/lib/thumb/v7e-m+fp/hard\libg-musl.a(__int_vsprintf.o)
 .debug_loc     0x0000f28b       0xa6 c:/program files/microchip/xc32/v4.21/bin/bin/../../lib/gcc/pic32c/8.3.1/../../../../pic32c/lib/thumb/v7e-m+fp/hard\libg-musl.a(__pop_float.o)
 .debug_loc     0x0000f331       0x60 c:/program files/microchip/xc32/v4.21/bin/bin/../../lib/gcc/pic32c/8.3.1/../../../../pic32c/lib/thumb/v7e-m+fp/hard\libg-musl.a(stpcpy.o)
 .debug_loc     0x0000f391       0xfd c:/program files/microchip/xc32/v4.21/bin/bin/../../lib/gcc/pic32c/8.3.1/../../../../pic32c/lib/thumb/v7e-m+fp/hard\libg-musl.a(__int_vsnprintf.o)
 .debug_loc     0x0000f48e       0x20 c:/program files/microchip/xc32/v4.21/bin/bin/../../lib/gcc/pic32c/8.3.1/../../../../pic32c/lib/thumb/v7e-m+fp/hard\libg-musl.a(__init_stdio.o)
 .debug_loc     0x0000f4ae      0x1a8 c:/program files/microchip/xc32/v4.21/bin/bin/../../lib/gcc/pic32c/8.3.1/../../../../pic32c/lib/thumb/v7e-m+fp/hard\libg-musl.a(__out.o)
 .debug_loc     0x0000f656      0xe79 c:/program files/microchip/xc32/v4.21/bin/bin/../../lib/gcc/pic32c/8.3.1/thumb/v7e-m+fp/hard\libgcc.a(_udivmoddi4.o)
 .debug_loc     0x000104cf       0x14 c:/program files/microchip/xc32/v4.21/bin/bin/../../lib/gcc/pic32c/8.3.1/../../../../pic32c/lib/thumb/v7e-m+fp/hard\libpic32c.a(write.o)

.debug_aranges  0x00000000      0xaa8
 .debug_aranges
                0x00000000       0x20 build/Default/debug/examples/driver_examples.o
 .debug_aranges
                0x00000020       0x20 build/Default/debug/gcc/system_same54.o
 .debug_aranges
                0x00000040       0x20 build/Default/debug/hal/src/hal_atomic.o
 .debug_aranges
                0x00000060       0x20 build/Default/debug/hal/src/hal_cache.o
 .debug_aranges
                0x00000080       0x20 build/Default/debug/hal/src/hal_delay.o
 .debug_aranges
                0x000000a0       0x20 build/Default/debug/hal/src/hal_gpio.o
 .debug_aranges
                0x000000c0       0x20 build/Default/debug/hal/src/hal_init.o
 .debug_aranges
                0x000000e0       0x20 build/Default/debug/hal/src/hal_io.o
 .debug_aranges
                0x00000100       0x20 build/Default/debug/hal/src/hal_sleep.o
 .debug_aranges
                0x00000120       0x20 build/Default/debug/hal/src/hal_usart_sync.o
 .debug_aranges
                0x00000140       0x20 build/Default/debug/hal/utils/src/utils_assert.o
 .debug_aranges
                0x00000160       0x20 build/Default/debug/hal/utils/src/utils_event.o
 .debug_aranges
                0x00000180       0x20 build/Default/debug/hal/utils/src/utils_list.o
 .debug_aranges
                0x000001a0       0x20 build/Default/debug/hal/utils/src/utils_syscalls.o
 .debug_aranges
                0x000001c0       0x20 build/Default/debug/hpl/cmcc/hpl_cmcc.o
 .debug_aranges
                0x000001e0       0x20 build/Default/debug/hpl/core/hpl_core_m4.o
 .debug_aranges
                0x00000200       0x20 build/Default/debug/hpl/core/hpl_init.o
 .debug_aranges
                0x00000220       0x18 build/Default/debug/hpl/dmac/hpl_dmac.o
 .debug_aranges
                0x00000238       0x20 build/Default/debug/hpl/gclk/hpl_gclk.o
 .debug_aranges
                0x00000258       0x20 build/Default/debug/hpl/mclk/hpl_mclk.o
 .debug_aranges
                0x00000278       0x20 build/Default/debug/hpl/osc32kctrl/hpl_osc32kctrl.o
 .debug_aranges
                0x00000298       0x20 build/Default/debug/hpl/oscctrl/hpl_oscctrl.o
 .debug_aranges
                0x000002b8       0x20 build/Default/debug/hpl/pm/hpl_pm.o
 .debug_aranges
                0x000002d8       0x20 build/Default/debug/hpl/ramecc/hpl_ramecc.o
 .debug_aranges
                0x000002f8       0x20 build/Default/debug/hpl/sercom/hpl_sercom.o
 .debug_aranges
                0x00000318       0x20 build/Default/debug/hpl/tcc/tcc_lite.o
 .debug_aranges
                0x00000338       0x20 build/Default/debug/thirdparty/RTOS/freertos/FreeRTOSV10.0.0/Source/portable/GCC/ARM_CM4F/port.o
 .debug_aranges
                0x00000358       0x20 build/Default/debug/thirdparty/RTOS/freertos/FreeRTOSV10.0.0/Source/portable/MemMang/heap_1.o
 .debug_aranges
                0x00000378       0x18 build/Default/debug/thirdparty/RTOS/freertos/FreeRTOSV10.0.0/Source/croutine.o
 .debug_aranges
                0x00000390       0x20 build/Default/debug/thirdparty/RTOS/freertos/FreeRTOSV10.0.0/Source/event_groups.o
 .debug_aranges
                0x000003b0       0x20 build/Default/debug/thirdparty/RTOS/freertos/FreeRTOSV10.0.0/Source/list.o
 .debug_aranges
                0x000003d0       0x20 build/Default/debug/thirdparty/RTOS/freertos/FreeRTOSV10.0.0/Source/queue.o
 .debug_aranges
                0x000003f0       0x20 build/Default/debug/thirdparty/RTOS/freertos/FreeRTOSV10.0.0/Source/stream_buffer.o
 .debug_aranges
                0x00000410       0x20 build/Default/debug/thirdparty/RTOS/freertos/FreeRTOSV10.0.0/Source/tasks.o
 .debug_aranges
                0x00000430       0x20 build/Default/debug/thirdparty/RTOS/freertos/FreeRTOSV10.0.0/Source/timers.o
 .debug_aranges
                0x00000450       0x20 build/Default/debug/thirdparty/RTOS/freertos/FreeRTOSV10.0.0/rtos_port.o
 .debug_aranges
                0x00000470       0x20 build/Default/debug/main.o
 .debug_aranges
                0x00000490       0x20 build/Default/debug/driver_init.o
 .debug_aranges
                0x000004b0       0x20 build/Default/debug/rtos_start.o
 .debug_aranges
                0x000004d0       0x20 build/Default/debug/atmel_start.o
 .debug_aranges
                0x000004f0       0x20 build/Default/debug/WiFi.o
 .debug_aranges
                0x00000510       0x20 build/Default/debug/interrupts.o
 .debug_aranges
                0x00000530       0x28 C:\Users\Loyola\AppData\Local\Temp\cc65FL0A.o
 .debug_aranges
                0x00000558       0x20 c:/program files/microchip/xc32/v4.21/bin/bin/../../lib/gcc/pic32c/8.3.1/../../../../pic32c/lib/thumb/v7e-m+fp/hard\libpic32c.a(data_init_wrapper.o)
 .debug_aranges
                0x00000578       0x20 c:/program files/microchip/xc32/v4.21/bin/bin/../../lib/gcc/pic32c/8.3.1/../../../../pic32c/lib/thumb/v7e-m+fp/hard\libpic32c.a(data_init_0_1.o)
 .debug_aranges
                0x00000598       0x28 c:/program files/microchip/xc32/v4.21/bin/bin/../../lib/gcc/pic32c/8.3.1/../../../../pic32c/lib/thumb/v7e-m+fp/hard\libg-musl.a(__libc_start_main.o)
 .debug_aranges
                0x000005c0       0x18 c:/program files/microchip/xc32/v4.21/bin/bin/../../lib/gcc/pic32c/8.3.1/../../../../pic32c/lib/thumb/v7e-m+fp/hard\libg-musl.a(libc.o)
 .debug_aranges
                0x000005d8       0x28 c:/program files/microchip/xc32/v4.21/bin/bin/../../lib/gcc/pic32c/8.3.1/../../../../pic32c/lib/thumb/v7e-m+fp/hard\libg-musl.a(__sio_printf_doux.o)
 .debug_aranges
                0x00000600       0x28 c:/program files/microchip/xc32/v4.21/bin/bin/../../lib/gcc/pic32c/8.3.1/../../../../pic32c/lib/thumb/v7e-m+fp/hard\libg-musl.a(__sio_sprintf_doux.o)
 .debug_aranges
                0x00000628       0x20 c:/program files/microchip/xc32/v4.21/bin/bin/../../lib/gcc/pic32c/8.3.1/../../../../pic32c/lib/thumb/v7e-m+fp/hard\libg-musl.a(__fmt_d.o)
 .debug_aranges
                0x00000648       0x20 c:/program files/microchip/xc32/v4.21/bin/bin/../../lib/gcc/pic32c/8.3.1/../../../../pic32c/lib/thumb/v7e-m+fp/hard\libg-musl.a(__fmt_o.o)
 .debug_aranges
                0x00000668       0x20 c:/program files/microchip/xc32/v4.21/bin/bin/../../lib/gcc/pic32c/8.3.1/../../../../pic32c/lib/thumb/v7e-m+fp/hard\libg-musl.a(__fmt_s.o)
 .debug_aranges
                0x00000688       0x28 c:/program files/microchip/xc32/v4.21/bin/bin/../../lib/gcc/pic32c/8.3.1/../../../../pic32c/lib/thumb/v7e-m+fp/hard\libg-musl.a(__fmt_u.o)
 .debug_aranges
                0x000006b0       0x20 c:/program files/microchip/xc32/v4.21/bin/bin/../../lib/gcc/pic32c/8.3.1/../../../../pic32c/lib/thumb/v7e-m+fp/hard\libg-musl.a(__fmt_x.o)
 .debug_aranges
                0x000006d0       0x20 c:/program files/microchip/xc32/v4.21/bin/bin/../../lib/gcc/pic32c/8.3.1/../../../../pic32c/lib/thumb/v7e-m+fp/hard\libg-musl.a(__pop_int.o)
 .debug_aranges
                0x000006f0       0x20 c:/program files/microchip/xc32/v4.21/bin/bin/../../lib/gcc/pic32c/8.3.1/../../../../pic32c/lib/thumb/v7e-m+fp/hard\libg-musl.a(__pop_ptr.o)
 .debug_aranges
                0x00000710       0x50 c:/program files/microchip/xc32/v4.21/bin/bin/../../lib/gcc/pic32c/8.3.1/../../../../pic32c/lib/thumb/v7e-m+fp/hard\libg-musl.a(__printf_core.o)
 .debug_aranges
                0x00000760       0x30 c:/program files/microchip/xc32/v4.21/bin/bin/../../lib/gcc/pic32c/8.3.1/../../../../pic32c/lib/thumb/v7e-m+fp/hard\libg-musl.a(stdout.o)
 .debug_aranges
                0x00000790       0x20 c:/program files/microchip/xc32/v4.21/bin/bin/../../lib/gcc/pic32c/8.3.1/../../../../pic32c/lib/thumb/v7e-m+fp/hard\libg-musl.a(atoi.o)
 .debug_aranges
                0x000007b0       0x20 c:/program files/microchip/xc32/v4.21/bin/bin/../../lib/gcc/pic32c/8.3.1/../../../../pic32c/lib/thumb/v7e-m+fp/hard\libg-musl.a(memcpy.o)
 .debug_aranges
                0x000007d0       0x20 c:/program files/microchip/xc32/v4.21/bin/bin/../../lib/gcc/pic32c/8.3.1/../../../../pic32c/lib/thumb/v7e-m+fp/hard\libg-musl.a(memset.o)
 .debug_aranges
                0x000007f0       0x20 c:/program files/microchip/xc32/v4.21/bin/bin/../../lib/gcc/pic32c/8.3.1/../../../../pic32c/lib/thumb/v7e-m+fp/hard\libg-musl.a(strlen.o)
 .debug_aranges
                0x00000810       0x20 c:/program files/microchip/xc32/v4.21/bin/bin/../../lib/gcc/pic32c/8.3.1/../../../../pic32c/lib/thumb/v7e-m+fp/hard\libg-musl.a(strstr.o)
 .debug_aranges
                0x00000830       0x20 c:/program files/microchip/xc32/v4.21/bin/bin/../../lib/gcc/pic32c/8.3.1/../../../../pic32c/lib/thumb/v7e-m+fp/hard\libg-musl.a(strcpy.o)
 .debug_aranges
                0x00000850       0x28 c:/program files/microchip/xc32/v4.21/bin/bin/../../lib/gcc/pic32c/8.3.1/../../../../pic32c/lib/thumb/v7e-m+fp/hard\libg-musl.a(tolower.o)
 .debug_aranges
                0x00000878       0x28 c:/program files/microchip/xc32/v4.21/bin/bin/../../lib/gcc/pic32c/8.3.1/../../../../pic32c/lib/thumb/v7e-m+fp/hard\libg-musl.a(toupper.o)
 .debug_aranges
                0x000008a0       0x18 c:/program files/microchip/xc32/v4.21/bin/bin/../../lib/gcc/pic32c/8.3.1/../../../../pic32c/lib/thumb/v7e-m+fp/hard\libg-musl.a(__environ.o)
 .debug_aranges
                0x000008b8       0x18 c:/program files/microchip/xc32/v4.21/bin/bin/../../lib/gcc/pic32c/8.3.1/../../../../pic32c/lib/thumb/v7e-m+fp/hard\libg-musl.a(__errno_location.o)
 .debug_aranges
                0x000008d0       0x20 c:/program files/microchip/xc32/v4.21/bin/bin/../../lib/gcc/pic32c/8.3.1/../../../../pic32c/lib/thumb/v7e-m+fp/hard\libg-musl.a(__int_vfprintf.o)
 .debug_aranges
                0x000008f0       0x20 c:/program files/microchip/xc32/v4.21/bin/bin/../../lib/gcc/pic32c/8.3.1/../../../../pic32c/lib/thumb/v7e-m+fp/hard\libg-musl.a(__int_vsprintf.o)
 .debug_aranges
                0x00000910       0x28 c:/program files/microchip/xc32/v4.21/bin/bin/../../lib/gcc/pic32c/8.3.1/../../../../pic32c/lib/thumb/v7e-m+fp/hard\libg-musl.a(__io_init_needed.o)
 .debug_aranges
                0x00000938       0x20 c:/program files/microchip/xc32/v4.21/bin/bin/../../lib/gcc/pic32c/8.3.1/../../../../pic32c/lib/thumb/v7e-m+fp/hard\libg-musl.a(__pop_float.o)
 .debug_aranges
                0x00000958       0x20 c:/program files/microchip/xc32/v4.21/bin/bin/../../lib/gcc/pic32c/8.3.1/../../../../pic32c/lib/thumb/v7e-m+fp/hard\libg-musl.a(stpcpy.o)
 .debug_aranges
                0x00000978       0x20 c:/program files/microchip/xc32/v4.21/bin/bin/../../lib/gcc/pic32c/8.3.1/../../../../pic32c/lib/thumb/v7e-m+fp/hard\libg-musl.a(__int_vsnprintf.o)
 .debug_aranges
                0x00000998       0x28 c:/program files/microchip/xc32/v4.21/bin/bin/../../lib/gcc/pic32c/8.3.1/../../../../pic32c/lib/thumb/v7e-m+fp/hard\libg-musl.a(__init_stdio.o)
 .debug_aranges
                0x000009c0       0x20 c:/program files/microchip/xc32/v4.21/bin/bin/../../lib/gcc/pic32c/8.3.1/../../../../pic32c/lib/thumb/v7e-m+fp/hard\libg-musl.a(__io_file_needed.o)
 .debug_aranges
                0x000009e0       0x28 c:/program files/microchip/xc32/v4.21/bin/bin/../../lib/gcc/pic32c/8.3.1/../../../../pic32c/lib/thumb/v7e-m+fp/hard\libg-musl.a(__out.o)
 .debug_aranges
                0x00000a08       0x20 c:/program files/microchip/xc32/v4.21/bin/bin/../../lib/gcc/pic32c/8.3.1/thumb/v7e-m+fp/hard\libgcc.a(_aeabi_uldivmod.o)
 .debug_aranges
                0x00000a28       0x20 c:/program files/microchip/xc32/v4.21/bin/bin/../../lib/gcc/pic32c/8.3.1/thumb/v7e-m+fp/hard\libgcc.a(_udivmoddi4.o)
 .debug_aranges
                0x00000a48       0x20 c:/program files/microchip/xc32/v4.21/bin/bin/../../lib/gcc/pic32c/8.3.1/thumb/v7e-m+fp/hard\libgcc.a(_dvmd_tls.o)
 .debug_aranges
                0x00000a68       0x20 c:/program files/microchip/xc32/v4.21/bin/bin/../../lib/gcc/pic32c/8.3.1/../../../../pic32c/lib/thumb/v7e-m+fp/hard\libpic32c.a(write.o)
 .debug_aranges
                0x00000a88       0x20 c:/program files/microchip/xc32/v4.21/bin/bin/../../lib/gcc/pic32c/8.3.1/../../../../pic32c/lib/thumb/v7e-m+fp/hard\libpic32c.a(_mon_putc.o)

.debug_line     0x00000000     0xb196
 .debug_line    0x00000000      0x111 build/Default/debug/examples/driver_examples.o
 .debug_line    0x00000111       0xc2 build/Default/debug/gcc/system_same54.o
 .debug_line    0x000001d3      0x120 build/Default/debug/hal/src/hal_atomic.o
 .debug_line    0x000002f3      0x17f build/Default/debug/hal/src/hal_cache.o
 .debug_line    0x00000472       0xad build/Default/debug/hal/src/hal_delay.o
 .debug_line    0x0000051f       0x97 build/Default/debug/hal/src/hal_gpio.o
 .debug_line    0x000005b6       0x97 build/Default/debug/hal/src/hal_init.o
 .debug_line    0x0000064d       0xc1 build/Default/debug/hal/src/hal_io.o
 .debug_line    0x0000070e       0xab build/Default/debug/hal/src/hal_sleep.o
 .debug_line    0x000007b9      0x20a build/Default/debug/hal/src/hal_usart_sync.o
 .debug_line    0x000009c3       0x5a build/Default/debug/hal/utils/src/utils_assert.o
 .debug_line    0x00000a1d      0x1ad build/Default/debug/hal/utils/src/utils_event.o
 .debug_line    0x00000bca      0x114 build/Default/debug/hal/utils/src/utils_list.o
 .debug_line    0x00000cde      0x140 build/Default/debug/hal/utils/src/utils_syscalls.o
 .debug_line    0x00000e1e      0x339 build/Default/debug/hpl/cmcc/hpl_cmcc.o
 .debug_line    0x00001157      0x301 build/Default/debug/hpl/core/hpl_core_m4.o
 .debug_line    0x00001458      0x102 build/Default/debug/hpl/core/hpl_init.o
 .debug_line    0x0000155a       0x1d build/Default/debug/hpl/dmac/hpl_dmac.o
 .debug_line    0x00001577      0x11a build/Default/debug/hpl/gclk/hpl_gclk.o
 .debug_line    0x00001691       0xf2 build/Default/debug/hpl/mclk/hpl_mclk.o
 .debug_line    0x00001783      0x135 build/Default/debug/hpl/osc32kctrl/hpl_osc32kctrl.o
 .debug_line    0x000018b8      0x12a build/Default/debug/hpl/oscctrl/hpl_oscctrl.o
 .debug_line    0x000019e2      0x10c build/Default/debug/hpl/pm/hpl_pm.o
 .debug_line    0x00001aee      0x252 build/Default/debug/hpl/ramecc/hpl_ramecc.o
 .debug_line    0x00001d40     0x1766 build/Default/debug/hpl/sercom/hpl_sercom.o
 .debug_line    0x000034a6      0x159 build/Default/debug/hpl/tcc/tcc_lite.o
 .debug_line    0x000035ff      0x30d build/Default/debug/thirdparty/RTOS/freertos/FreeRTOSV10.0.0/Source/portable/GCC/ARM_CM4F/port.o
 .debug_line    0x0000390c      0x183 build/Default/debug/thirdparty/RTOS/freertos/FreeRTOSV10.0.0/Source/portable/MemMang/heap_1.o
 .debug_line    0x00003a8f       0x1d build/Default/debug/thirdparty/RTOS/freertos/FreeRTOSV10.0.0/Source/croutine.o
 .debug_line    0x00003aac      0x449 build/Default/debug/thirdparty/RTOS/freertos/FreeRTOSV10.0.0/Source/event_groups.o
 .debug_line    0x00003ef5      0x1fb build/Default/debug/thirdparty/RTOS/freertos/FreeRTOSV10.0.0/Source/list.o
 .debug_line    0x000040f0      0xb94 build/Default/debug/thirdparty/RTOS/freertos/FreeRTOSV10.0.0/Source/queue.o
 .debug_line    0x00004c84      0x6f2 build/Default/debug/thirdparty/RTOS/freertos/FreeRTOSV10.0.0/Source/stream_buffer.o
 .debug_line    0x00005376      0xe14 build/Default/debug/thirdparty/RTOS/freertos/FreeRTOSV10.0.0/Source/tasks.o
 .debug_line    0x0000618a      0x4dc build/Default/debug/thirdparty/RTOS/freertos/FreeRTOSV10.0.0/Source/timers.o
 .debug_line    0x00006666      0x203 build/Default/debug/thirdparty/RTOS/freertos/FreeRTOSV10.0.0/rtos_port.o
 .debug_line    0x00006869       0xe9 build/Default/debug/main.o
 .debug_line    0x00006952      0x3fd build/Default/debug/driver_init.o
 .debug_line    0x00006d4f      0x146 build/Default/debug/rtos_start.o
 .debug_line    0x00006e95       0x74 build/Default/debug/atmel_start.o
 .debug_line    0x00006f09      0x32e build/Default/debug/WiFi.o
 .debug_line    0x00007237      0x234 build/Default/debug/interrupts.o
 .debug_line    0x0000746b      0x249 C:\Users\Loyola\AppData\Local\Temp\cc65FL0A.o
 .debug_line    0x000076b4       0xa9 c:/program files/microchip/xc32/v4.21/bin/bin/../../lib/gcc/pic32c/8.3.1/../../../../pic32c/lib/thumb/v7e-m+fp/hard\libpic32c.a(data_init_wrapper.o)
 .debug_line    0x0000775d       0xf2 c:/program files/microchip/xc32/v4.21/bin/bin/../../lib/gcc/pic32c/8.3.1/../../../../pic32c/lib/thumb/v7e-m+fp/hard\libpic32c.a(data_init_0_1.o)
 .debug_line    0x0000784f      0x1d5 c:/program files/microchip/xc32/v4.21/bin/bin/../../lib/gcc/pic32c/8.3.1/../../../../pic32c/lib/thumb/v7e-m+fp/hard\libg-musl.a(__libc_start_main.o)
 .debug_line    0x00007a24       0xbc c:/program files/microchip/xc32/v4.21/bin/bin/../../lib/gcc/pic32c/8.3.1/../../../../pic32c/lib/thumb/v7e-m+fp/hard\libg-musl.a(libc.o)
 .debug_line    0x00007ae0      0x1c8 c:/program files/microchip/xc32/v4.21/bin/bin/../../lib/gcc/pic32c/8.3.1/../../../../pic32c/lib/thumb/v7e-m+fp/hard\libg-musl.a(__sio_printf_doux.o)
 .debug_line    0x00007ca8      0x1b1 c:/program files/microchip/xc32/v4.21/bin/bin/../../lib/gcc/pic32c/8.3.1/../../../../pic32c/lib/thumb/v7e-m+fp/hard\libg-musl.a(__sio_sprintf_doux.o)
 .debug_line    0x00007e59      0x20d c:/program files/microchip/xc32/v4.21/bin/bin/../../lib/gcc/pic32c/8.3.1/../../../../pic32c/lib/thumb/v7e-m+fp/hard\libg-musl.a(__fmt_d.o)
 .debug_line    0x00008066      0x1b7 c:/program files/microchip/xc32/v4.21/bin/bin/../../lib/gcc/pic32c/8.3.1/../../../../pic32c/lib/thumb/v7e-m+fp/hard\libg-musl.a(__fmt_o.o)
 .debug_line    0x0000821d      0x200 c:/program files/microchip/xc32/v4.21/bin/bin/../../lib/gcc/pic32c/8.3.1/../../../../pic32c/lib/thumb/v7e-m+fp/hard\libg-musl.a(__fmt_s.o)
 .debug_line    0x0000841d      0x241 c:/program files/microchip/xc32/v4.21/bin/bin/../../lib/gcc/pic32c/8.3.1/../../../../pic32c/lib/thumb/v7e-m+fp/hard\libg-musl.a(__fmt_u.o)
 .debug_line    0x0000865e      0x2e2 c:/program files/microchip/xc32/v4.21/bin/bin/../../lib/gcc/pic32c/8.3.1/../../../../pic32c/lib/thumb/v7e-m+fp/hard\libg-musl.a(__fmt_x.o)
 .debug_line    0x00008940      0x20e c:/program files/microchip/xc32/v4.21/bin/bin/../../lib/gcc/pic32c/8.3.1/../../../../pic32c/lib/thumb/v7e-m+fp/hard\libg-musl.a(__pop_int.o)
 .debug_line    0x00008b4e      0x1ee c:/program files/microchip/xc32/v4.21/bin/bin/../../lib/gcc/pic32c/8.3.1/../../../../pic32c/lib/thumb/v7e-m+fp/hard\libg-musl.a(__pop_ptr.o)
 .debug_line    0x00008d3c      0x69e c:/program files/microchip/xc32/v4.21/bin/bin/../../lib/gcc/pic32c/8.3.1/../../../../pic32c/lib/thumb/v7e-m+fp/hard\libg-musl.a(__printf_core.o)
 .debug_line    0x000093da      0x18f c:/program files/microchip/xc32/v4.21/bin/bin/../../lib/gcc/pic32c/8.3.1/../../../../pic32c/lib/thumb/v7e-m+fp/hard\libg-musl.a(stdout.o)
 .debug_line    0x00009569      0x175 c:/program files/microchip/xc32/v4.21/bin/bin/../../lib/gcc/pic32c/8.3.1/../../../../pic32c/lib/thumb/v7e-m+fp/hard\libg-musl.a(atoi.o)
 .debug_line    0x000096de       0xf2 c:/program files/microchip/xc32/v4.21/bin/bin/../../lib/gcc/pic32c/8.3.1/../../../../pic32c/lib/thumb/v7e-m+fp/hard\libg-musl.a(memcpy.o)
 .debug_line    0x000097d0       0xe9 c:/program files/microchip/xc32/v4.21/bin/bin/../../lib/gcc/pic32c/8.3.1/../../../../pic32c/lib/thumb/v7e-m+fp/hard\libg-musl.a(memset.o)
 .debug_line    0x000098b9       0xe5 c:/program files/microchip/xc32/v4.21/bin/bin/../../lib/gcc/pic32c/8.3.1/../../../../pic32c/lib/thumb/v7e-m+fp/hard\libg-musl.a(strlen.o)
 .debug_line    0x0000999e      0x117 c:/program files/microchip/xc32/v4.21/bin/bin/../../lib/gcc/pic32c/8.3.1/../../../../pic32c/lib/thumb/v7e-m+fp/hard\libg-musl.a(strstr.o)
 .debug_line    0x00009ab5       0xb4 c:/program files/microchip/xc32/v4.21/bin/bin/../../lib/gcc/pic32c/8.3.1/../../../../pic32c/lib/thumb/v7e-m+fp/hard\libg-musl.a(strcpy.o)
 .debug_line    0x00009b69      0x165 c:/program files/microchip/xc32/v4.21/bin/bin/../../lib/gcc/pic32c/8.3.1/../../../../pic32c/lib/thumb/v7e-m+fp/hard\libg-musl.a(tolower.o)
 .debug_line    0x00009cce      0x165 c:/program files/microchip/xc32/v4.21/bin/bin/../../lib/gcc/pic32c/8.3.1/../../../../pic32c/lib/thumb/v7e-m+fp/hard\libg-musl.a(toupper.o)
 .debug_line    0x00009e33      0x109 c:/program files/microchip/xc32/v4.21/bin/bin/../../lib/gcc/pic32c/8.3.1/../../../../pic32c/lib/thumb/v7e-m+fp/hard\libg-musl.a(__environ.o)
 .debug_line    0x00009f3c       0xa1 c:/program files/microchip/xc32/v4.21/bin/bin/../../lib/gcc/pic32c/8.3.1/../../../../pic32c/lib/thumb/v7e-m+fp/hard\libg-musl.a(__errno_location.o)
 .debug_line    0x00009fdd      0x176 c:/program files/microchip/xc32/v4.21/bin/bin/../../lib/gcc/pic32c/8.3.1/../../../../pic32c/lib/thumb/v7e-m+fp/hard\libg-musl.a(__int_vfprintf.o)
 .debug_line    0x0000a153      0x15b c:/program files/microchip/xc32/v4.21/bin/bin/../../lib/gcc/pic32c/8.3.1/../../../../pic32c/lib/thumb/v7e-m+fp/hard\libg-musl.a(__int_vsprintf.o)
 .debug_line    0x0000a2ae      0x139 c:/program files/microchip/xc32/v4.21/bin/bin/../../lib/gcc/pic32c/8.3.1/../../../../pic32c/lib/thumb/v7e-m+fp/hard\libg-musl.a(__io_init_needed.o)
 .debug_line    0x0000a3e7      0x173 c:/program files/microchip/xc32/v4.21/bin/bin/../../lib/gcc/pic32c/8.3.1/../../../../pic32c/lib/thumb/v7e-m+fp/hard\libg-musl.a(__pop_float.o)
 .debug_line    0x0000a55a       0xc8 c:/program files/microchip/xc32/v4.21/bin/bin/../../lib/gcc/pic32c/8.3.1/../../../../pic32c/lib/thumb/v7e-m+fp/hard\libg-musl.a(stpcpy.o)
 .debug_line    0x0000a622      0x1c9 c:/program files/microchip/xc32/v4.21/bin/bin/../../lib/gcc/pic32c/8.3.1/../../../../pic32c/lib/thumb/v7e-m+fp/hard\libg-musl.a(__int_vsnprintf.o)
 .debug_line    0x0000a7eb       0xcf c:/program files/microchip/xc32/v4.21/bin/bin/../../lib/gcc/pic32c/8.3.1/../../../../pic32c/lib/thumb/v7e-m+fp/hard\libg-musl.a(__init_stdio.o)
 .debug_line    0x0000a8ba       0xb3 c:/program files/microchip/xc32/v4.21/bin/bin/../../lib/gcc/pic32c/8.3.1/../../../../pic32c/lib/thumb/v7e-m+fp/hard\libg-musl.a(__io_file_needed.o)
 .debug_line    0x0000a96d      0x234 c:/program files/microchip/xc32/v4.21/bin/bin/../../lib/gcc/pic32c/8.3.1/../../../../pic32c/lib/thumb/v7e-m+fp/hard\libg-musl.a(__out.o)
 .debug_line    0x0000aba1       0x98 c:/program files/microchip/xc32/v4.21/bin/bin/../../lib/gcc/pic32c/8.3.1/thumb/v7e-m+fp/hard\libgcc.a(_aeabi_uldivmod.o)
 .debug_line    0x0000ac39      0x367 c:/program files/microchip/xc32/v4.21/bin/bin/../../lib/gcc/pic32c/8.3.1/thumb/v7e-m+fp/hard\libgcc.a(_udivmoddi4.o)
 .debug_line    0x0000afa0       0x98 c:/program files/microchip/xc32/v4.21/bin/bin/../../lib/gcc/pic32c/8.3.1/thumb/v7e-m+fp/hard\libgcc.a(_dvmd_tls.o)
 .debug_line    0x0000b038       0xbf c:/program files/microchip/xc32/v4.21/bin/bin/../../lib/gcc/pic32c/8.3.1/../../../../pic32c/lib/thumb/v7e-m+fp/hard\libpic32c.a(write.o)
 .debug_line    0x0000b0f7       0x9f c:/program files/microchip/xc32/v4.21/bin/bin/../../lib/gcc/pic32c/8.3.1/../../../../pic32c/lib/thumb/v7e-m+fp/hard\libpic32c.a(_mon_putc.o)

.debug_str      0x00000000     0x10a2
 .debug_str     0x00000000        0x0 build/Default/debug/examples/driver_examples.o
 .debug_str     0x00000000        0x0 build/Default/debug/gcc/system_same54.o
 .debug_str     0x00000000        0x0 build/Default/debug/hal/src/hal_atomic.o
 .debug_str     0x00000000        0x0 build/Default/debug/hal/src/hal_cache.o
 .debug_str     0x00000000        0x0 build/Default/debug/hal/src/hal_delay.o
 .debug_str     0x00000000        0x0 build/Default/debug/hal/src/hal_gpio.o
 .debug_str     0x00000000        0x0 build/Default/debug/hal/src/hal_init.o
 .debug_str     0x00000000        0x9 build/Default/debug/hal/src/hal_io.o
 .debug_str     0x00000009        0x0 build/Default/debug/hal/src/hal_sleep.o
 .debug_str     0x00000009        0xf build/Default/debug/hal/src/hal_usart_sync.o
 .debug_str     0x00000018        0x0 build/Default/debug/hal/utils/src/utils_assert.o
 .debug_str     0x00000018        0x9 build/Default/debug/hal/utils/src/utils_event.o
 .debug_str     0x00000021        0x8 build/Default/debug/hal/utils/src/utils_list.o
 .debug_str     0x00000029        0x0 build/Default/debug/hal/utils/src/utils_syscalls.o
 .debug_str     0x00000029       0x12 build/Default/debug/hpl/cmcc/hpl_cmcc.o
 .debug_str     0x0000003b        0xa build/Default/debug/hpl/core/hpl_core_m4.o
 .debug_str     0x00000045       0x18 build/Default/debug/hpl/core/hpl_init.o
 .debug_str     0x0000005d        0x0 build/Default/debug/hpl/dmac/hpl_dmac.o
 .debug_str     0x0000005d        0x0 build/Default/debug/hpl/gclk/hpl_gclk.o
 .debug_str     0x0000005d       0x12 build/Default/debug/hpl/mclk/hpl_mclk.o
 .debug_str     0x0000006f       0x17 build/Default/debug/hpl/osc32kctrl/hpl_osc32kctrl.o
 .debug_str     0x00000086       0xe8 build/Default/debug/hpl/oscctrl/hpl_oscctrl.o
 .debug_str     0x0000016e        0x9 build/Default/debug/hpl/pm/hpl_pm.o
 .debug_str     0x00000177        0x8 build/Default/debug/hpl/ramecc/hpl_ramecc.o
 .debug_str     0x0000017f      0x1fb build/Default/debug/hpl/sercom/hpl_sercom.o
 .debug_str     0x0000037a       0x70 build/Default/debug/hpl/tcc/tcc_lite.o
 .debug_str     0x000003ea        0x0 build/Default/debug/thirdparty/RTOS/freertos/FreeRTOSV10.0.0/Source/portable/GCC/ARM_CM4F/port.o
 .debug_str     0x000003ea        0x0 build/Default/debug/thirdparty/RTOS/freertos/FreeRTOSV10.0.0/Source/portable/MemMang/heap_1.o
 .debug_str     0x000003ea        0x0 build/Default/debug/thirdparty/RTOS/freertos/FreeRTOSV10.0.0/Source/croutine.o
 .debug_str     0x000003ea      0x106 build/Default/debug/thirdparty/RTOS/freertos/FreeRTOSV10.0.0/Source/event_groups.o
 .debug_str     0x000004f0       0x2b build/Default/debug/thirdparty/RTOS/freertos/FreeRTOSV10.0.0/Source/list.o
 .debug_str     0x0000051b      0x174 build/Default/debug/thirdparty/RTOS/freertos/FreeRTOSV10.0.0/Source/queue.o
 .debug_str     0x0000068f      0x15f build/Default/debug/thirdparty/RTOS/freertos/FreeRTOSV10.0.0/Source/stream_buffer.o
 .debug_str     0x000007ee      0x1b8 build/Default/debug/thirdparty/RTOS/freertos/FreeRTOSV10.0.0/Source/tasks.o
 .debug_str     0x000009a6       0xe0 build/Default/debug/thirdparty/RTOS/freertos/FreeRTOSV10.0.0/Source/timers.o
 .debug_str     0x00000a86        0x0 build/Default/debug/thirdparty/RTOS/freertos/FreeRTOSV10.0.0/rtos_port.o
 .debug_str     0x00000a86        0x0 build/Default/debug/main.o
 .debug_str     0x00000a86      0x148 build/Default/debug/driver_init.o
 .debug_str     0x00000bce        0x0 build/Default/debug/rtos_start.o
 .debug_str     0x00000bce        0x0 build/Default/debug/atmel_start.o
 .debug_str     0x00000bce       0x64 build/Default/debug/WiFi.o
 .debug_str     0x00000c32      0x10d build/Default/debug/interrupts.o
 .debug_str     0x00000d3f        0x6 C:\Users\Loyola\AppData\Local\Temp\cc65FL0A.o
 .debug_str     0x00000d45        0x0 c:/program files/microchip/xc32/v4.21/bin/bin/../../lib/gcc/pic32c/8.3.1/../../../../pic32c/lib/thumb/v7e-m+fp/hard\libpic32c.a(data_init_wrapper.o)
 .debug_str     0x00000d45        0x0 c:/program files/microchip/xc32/v4.21/bin/bin/../../lib/gcc/pic32c/8.3.1/../../../../pic32c/lib/thumb/v7e-m+fp/hard\libpic32c.a(data_init_0_1.o)
 .debug_str     0x00000d45        0x0 c:/program files/microchip/xc32/v4.21/bin/bin/../../lib/gcc/pic32c/8.3.1/../../../../pic32c/lib/thumb/v7e-m+fp/hard\libg-musl.a(__libc_start_main.o)
 .debug_str     0x00000d45        0x0 c:/program files/microchip/xc32/v4.21/bin/bin/../../lib/gcc/pic32c/8.3.1/../../../../pic32c/lib/thumb/v7e-m+fp/hard\libg-musl.a(libc.o)
 .debug_str     0x00000d45       0x78 c:/program files/microchip/xc32/v4.21/bin/bin/../../lib/gcc/pic32c/8.3.1/../../../../pic32c/lib/thumb/v7e-m+fp/hard\libg-musl.a(__sio_printf_doux.o)
 .debug_str     0x00000dbd       0x78 c:/program files/microchip/xc32/v4.21/bin/bin/../../lib/gcc/pic32c/8.3.1/../../../../pic32c/lib/thumb/v7e-m+fp/hard\libg-musl.a(__sio_sprintf_doux.o)
 .debug_str     0x00000e35        0x0 c:/program files/microchip/xc32/v4.21/bin/bin/../../lib/gcc/pic32c/8.3.1/../../../../pic32c/lib/thumb/v7e-m+fp/hard\libg-musl.a(__fmt_d.o)
 .debug_str     0x00000e35        0x0 c:/program files/microchip/xc32/v4.21/bin/bin/../../lib/gcc/pic32c/8.3.1/../../../../pic32c/lib/thumb/v7e-m+fp/hard\libg-musl.a(__fmt_o.o)
 .debug_str     0x00000e35        0x0 c:/program files/microchip/xc32/v4.21/bin/bin/../../lib/gcc/pic32c/8.3.1/../../../../pic32c/lib/thumb/v7e-m+fp/hard\libg-musl.a(__fmt_s.o)
 .debug_str     0x00000e35        0x6 c:/program files/microchip/xc32/v4.21/bin/bin/../../lib/gcc/pic32c/8.3.1/../../../../pic32c/lib/thumb/v7e-m+fp/hard\libg-musl.a(__fmt_u.o)
 .debug_str     0x00000e3b        0x0 c:/program files/microchip/xc32/v4.21/bin/bin/../../lib/gcc/pic32c/8.3.1/../../../../pic32c/lib/thumb/v7e-m+fp/hard\libg-musl.a(__fmt_x.o)
 .debug_str     0x00000e3b        0x0 c:/program files/microchip/xc32/v4.21/bin/bin/../../lib/gcc/pic32c/8.3.1/../../../../pic32c/lib/thumb/v7e-m+fp/hard\libg-musl.a(__pop_int.o)
 .debug_str     0x00000e3b        0x0 c:/program files/microchip/xc32/v4.21/bin/bin/../../lib/gcc/pic32c/8.3.1/../../../../pic32c/lib/thumb/v7e-m+fp/hard\libg-musl.a(__pop_ptr.o)
 .debug_str     0x00000e3b       0x20 c:/program files/microchip/xc32/v4.21/bin/bin/../../lib/gcc/pic32c/8.3.1/../../../../pic32c/lib/thumb/v7e-m+fp/hard\libg-musl.a(__printf_core.o)
 .debug_str     0x00000e5b       0x11 c:/program files/microchip/xc32/v4.21/bin/bin/../../lib/gcc/pic32c/8.3.1/../../../../pic32c/lib/thumb/v7e-m+fp/hard\libg-musl.a(stdout.o)
 .debug_str     0x00000e6c        0x0 c:/program files/microchip/xc32/v4.21/bin/bin/../../lib/gcc/pic32c/8.3.1/../../../../pic32c/lib/thumb/v7e-m+fp/hard\libg-musl.a(atoi.o)
 .debug_str     0x00000e6c        0x0 c:/program files/microchip/xc32/v4.21/bin/bin/../../lib/gcc/pic32c/8.3.1/../../../../pic32c/lib/thumb/v7e-m+fp/hard\libg-musl.a(memcpy.o)
 .debug_str     0x00000e6c        0x0 c:/program files/microchip/xc32/v4.21/bin/bin/../../lib/gcc/pic32c/8.3.1/../../../../pic32c/lib/thumb/v7e-m+fp/hard\libg-musl.a(memset.o)
 .debug_str     0x00000e6c        0x0 c:/program files/microchip/xc32/v4.21/bin/bin/../../lib/gcc/pic32c/8.3.1/../../../../pic32c/lib/thumb/v7e-m+fp/hard\libg-musl.a(strlen.o)
 .debug_str     0x00000e6c        0x0 c:/program files/microchip/xc32/v4.21/bin/bin/../../lib/gcc/pic32c/8.3.1/../../../../pic32c/lib/thumb/v7e-m+fp/hard\libg-musl.a(strstr.o)
 .debug_str     0x00000e6c        0x9 c:/program files/microchip/xc32/v4.21/bin/bin/../../lib/gcc/pic32c/8.3.1/../../../../pic32c/lib/thumb/v7e-m+fp/hard\libg-musl.a(strcpy.o)
 .debug_str     0x00000e75        0x0 c:/program files/microchip/xc32/v4.21/bin/bin/../../lib/gcc/pic32c/8.3.1/../../../../pic32c/lib/thumb/v7e-m+fp/hard\libg-musl.a(tolower.o)
 .debug_str     0x00000e75        0x0 c:/program files/microchip/xc32/v4.21/bin/bin/../../lib/gcc/pic32c/8.3.1/../../../../pic32c/lib/thumb/v7e-m+fp/hard\libg-musl.a(toupper.o)
 .debug_str     0x00000e75        0x0 c:/program files/microchip/xc32/v4.21/bin/bin/../../lib/gcc/pic32c/8.3.1/../../../../pic32c/lib/thumb/v7e-m+fp/hard\libg-musl.a(__environ.o)
 .debug_str     0x00000e75        0x0 c:/program files/microchip/xc32/v4.21/bin/bin/../../lib/gcc/pic32c/8.3.1/../../../../pic32c/lib/thumb/v7e-m+fp/hard\libg-musl.a(__errno_location.o)
 .debug_str     0x00000e75        0xe c:/program files/microchip/xc32/v4.21/bin/bin/../../lib/gcc/pic32c/8.3.1/../../../../pic32c/lib/thumb/v7e-m+fp/hard\libg-musl.a(__int_vfprintf.o)
 .debug_str     0x00000e83        0xc c:/program files/microchip/xc32/v4.21/bin/bin/../../lib/gcc/pic32c/8.3.1/../../../../pic32c/lib/thumb/v7e-m+fp/hard\libg-musl.a(__int_vsprintf.o)
 .debug_str     0x00000e8f       0x25 c:/program files/microchip/xc32/v4.21/bin/bin/../../lib/gcc/pic32c/8.3.1/../../../../pic32c/lib/thumb/v7e-m+fp/hard\libg-musl.a(__io_init_needed.o)
 .debug_str     0x00000eb4        0x0 c:/program files/microchip/xc32/v4.21/bin/bin/../../lib/gcc/pic32c/8.3.1/../../../../pic32c/lib/thumb/v7e-m+fp/hard\libg-musl.a(__pop_float.o)
 .debug_str     0x00000eb4        0x0 c:/program files/microchip/xc32/v4.21/bin/bin/../../lib/gcc/pic32c/8.3.1/../../../../pic32c/lib/thumb/v7e-m+fp/hard\libg-musl.a(stpcpy.o)
 .debug_str     0x00000eb4        0xb c:/program files/microchip/xc32/v4.21/bin/bin/../../lib/gcc/pic32c/8.3.1/../../../../pic32c/lib/thumb/v7e-m+fp/hard\libg-musl.a(__int_vsnprintf.o)
 .debug_str     0x00000ebf        0x0 c:/program files/microchip/xc32/v4.21/bin/bin/../../lib/gcc/pic32c/8.3.1/../../../../pic32c/lib/thumb/v7e-m+fp/hard\libg-musl.a(__init_stdio.o)
 .debug_str     0x00000ebf        0xd c:/program files/microchip/xc32/v4.21/bin/bin/../../lib/gcc/pic32c/8.3.1/../../../../pic32c/lib/thumb/v7e-m+fp/hard\libg-musl.a(__io_file_needed.o)
 .debug_str     0x00000ecc        0x0 c:/program files/microchip/xc32/v4.21/bin/bin/../../lib/gcc/pic32c/8.3.1/../../../../pic32c/lib/thumb/v7e-m+fp/hard\libg-musl.a(__out.o)
 .debug_str     0x00000ecc       0xe9 c:/program files/microchip/xc32/v4.21/bin/bin/../../lib/gcc/pic32c/8.3.1/thumb/v7e-m+fp/hard\libgcc.a(_aeabi_uldivmod.o)
 .debug_str     0x00000fb5        0x0 c:/program files/microchip/xc32/v4.21/bin/bin/../../lib/gcc/pic32c/8.3.1/thumb/v7e-m+fp/hard\libgcc.a(_udivmoddi4.o)
 .debug_str     0x00000fb5       0xed c:/program files/microchip/xc32/v4.21/bin/bin/../../lib/gcc/pic32c/8.3.1/thumb/v7e-m+fp/hard\libgcc.a(_dvmd_tls.o)
 .debug_str     0x000010a2        0x0 c:/program files/microchip/xc32/v4.21/bin/bin/../../lib/gcc/pic32c/8.3.1/../../../../pic32c/lib/thumb/v7e-m+fp/hard\libpic32c.a(write.o)
 .debug_str     0x000010a2        0x0 c:/program files/microchip/xc32/v4.21/bin/bin/../../lib/gcc/pic32c/8.3.1/../../../../pic32c/lib/thumb/v7e-m+fp/hard\libpic32c.a(_mon_putc.o)

.debug_frame    0x00000000     0x6b94
 .debug_frame   0x00000000       0xa0 build/Default/debug/examples/driver_examples.o
 .debug_frame   0x000000a0       0x50 build/Default/debug/gcc/system_same54.o
 .debug_frame   0x000000f0       0x80 build/Default/debug/hal/src/hal_atomic.o
 .debug_frame   0x00000170      0x19c build/Default/debug/hal/src/hal_cache.o
 .debug_frame   0x0000030c       0xa4 build/Default/debug/hal/src/hal_delay.o
 .debug_frame   0x000003b0       0x30 build/Default/debug/hal/src/hal_gpio.o
 .debug_frame   0x000003e0       0x30 build/Default/debug/hal/src/hal_init.o
 .debug_frame   0x00000410       0x78 build/Default/debug/hal/src/hal_io.o
 .debug_frame   0x00000488       0x54 build/Default/debug/hal/src/hal_sleep.o
 .debug_frame   0x000004dc      0x29c build/Default/debug/hal/src/hal_usart_sync.o
 .debug_frame   0x00000778       0x38 build/Default/debug/hal/utils/src/utils_assert.o
 .debug_frame   0x000007b0       0xcc build/Default/debug/hal/utils/src/utils_event.o
 .debug_frame   0x0000087c      0x100 build/Default/debug/hal/utils/src/utils_list.o
 .debug_frame   0x0000097c      0x168 build/Default/debug/hal/utils/src/utils_syscalls.o
 .debug_frame   0x00000ae4      0x49c build/Default/debug/hpl/cmcc/hpl_cmcc.o
 .debug_frame   0x00000f80      0x2e4 build/Default/debug/hpl/core/hpl_core_m4.o
 .debug_frame   0x00001264       0x54 build/Default/debug/hpl/core/hpl_init.o
 .debug_frame   0x000012b8       0x9c build/Default/debug/hpl/gclk/hpl_gclk.o
 .debug_frame   0x00001354       0x5c build/Default/debug/hpl/mclk/hpl_mclk.o
 .debug_frame   0x000013b0       0xac build/Default/debug/hpl/osc32kctrl/hpl_osc32kctrl.o
 .debug_frame   0x0000145c       0xac build/Default/debug/hpl/oscctrl/hpl_oscctrl.o
 .debug_frame   0x00001508       0x84 build/Default/debug/hpl/pm/hpl_pm.o
 .debug_frame   0x0000158c      0x1b8 build/Default/debug/hpl/ramecc/hpl_ramecc.o
 .debug_frame   0x00001744     0x2a5c build/Default/debug/hpl/sercom/hpl_sercom.o
 .debug_frame   0x000041a0      0x10c build/Default/debug/hpl/tcc/tcc_lite.o
 .debug_frame   0x000042ac      0x1a8 build/Default/debug/thirdparty/RTOS/freertos/FreeRTOSV10.0.0/Source/portable/GCC/ARM_CM4F/port.o
 .debug_frame   0x00004454       0x9c build/Default/debug/thirdparty/RTOS/freertos/FreeRTOSV10.0.0/Source/portable/MemMang/heap_1.o
 .debug_frame   0x000044f0      0x1d0 build/Default/debug/thirdparty/RTOS/freertos/FreeRTOSV10.0.0/Source/event_groups.o
 .debug_frame   0x000046c0       0xd8 build/Default/debug/thirdparty/RTOS/freertos/FreeRTOSV10.0.0/Source/list.o
 .debug_frame   0x00004798      0x594 build/Default/debug/thirdparty/RTOS/freertos/FreeRTOSV10.0.0/Source/queue.o
 .debug_frame   0x00004d2c      0x378 build/Default/debug/thirdparty/RTOS/freertos/FreeRTOSV10.0.0/Source/stream_buffer.o
 .debug_frame   0x000050a4      0x7c4 build/Default/debug/thirdparty/RTOS/freertos/FreeRTOSV10.0.0/Source/tasks.o
 .debug_frame   0x00005868      0x340 build/Default/debug/thirdparty/RTOS/freertos/FreeRTOSV10.0.0/Source/timers.o
 .debug_frame   0x00005ba8       0xc0 build/Default/debug/thirdparty/RTOS/freertos/FreeRTOSV10.0.0/rtos_port.o
 .debug_frame   0x00005c68       0x2c build/Default/debug/main.o
 .debug_frame   0x00005c94      0x3f0 build/Default/debug/driver_init.o
 .debug_frame   0x00006084       0x34 build/Default/debug/rtos_start.o
 .debug_frame   0x000060b8       0x2c build/Default/debug/atmel_start.o
 .debug_frame   0x000060e4      0x1c4 build/Default/debug/WiFi.o
 .debug_frame   0x000062a8      0x158 build/Default/debug/interrupts.o
 .debug_frame   0x00006400       0x30 C:\Users\Loyola\AppData\Local\Temp\cc65FL0A.o
 .debug_frame   0x00006430       0x20 c:/program files/microchip/xc32/v4.21/bin/bin/../../lib/gcc/pic32c/8.3.1/../../../../pic32c/lib/thumb/v7e-m+fp/hard\libpic32c.a(data_init_wrapper.o)
 .debug_frame   0x00006450       0x2c c:/program files/microchip/xc32/v4.21/bin/bin/../../lib/gcc/pic32c/8.3.1/../../../../pic32c/lib/thumb/v7e-m+fp/hard\libpic32c.a(data_init_0_1.o)
 .debug_frame   0x0000647c       0x3c c:/program files/microchip/xc32/v4.21/bin/bin/../../lib/gcc/pic32c/8.3.1/../../../../pic32c/lib/thumb/v7e-m+fp/hard\libg-musl.a(__libc_start_main.o)
 .debug_frame   0x000064b8       0x5c c:/program files/microchip/xc32/v4.21/bin/bin/../../lib/gcc/pic32c/8.3.1/../../../../pic32c/lib/thumb/v7e-m+fp/hard\libg-musl.a(__sio_printf_doux.o)
 .debug_frame   0x00006514       0x58 c:/program files/microchip/xc32/v4.21/bin/bin/../../lib/gcc/pic32c/8.3.1/../../../../pic32c/lib/thumb/v7e-m+fp/hard\libg-musl.a(__sio_sprintf_doux.o)
 .debug_frame   0x0000656c       0x3c c:/program files/microchip/xc32/v4.21/bin/bin/../../lib/gcc/pic32c/8.3.1/../../../../pic32c/lib/thumb/v7e-m+fp/hard\libg-musl.a(__fmt_d.o)
 .debug_frame   0x000065a8       0x34 c:/program files/microchip/xc32/v4.21/bin/bin/../../lib/gcc/pic32c/8.3.1/../../../../pic32c/lib/thumb/v7e-m+fp/hard\libg-musl.a(__fmt_o.o)
 .debug_frame   0x000065dc       0x34 c:/program files/microchip/xc32/v4.21/bin/bin/../../lib/gcc/pic32c/8.3.1/../../../../pic32c/lib/thumb/v7e-m+fp/hard\libg-musl.a(__fmt_s.o)
 .debug_frame   0x00006610       0x5c c:/program files/microchip/xc32/v4.21/bin/bin/../../lib/gcc/pic32c/8.3.1/../../../../pic32c/lib/thumb/v7e-m+fp/hard\libg-musl.a(__fmt_u.o)
 .debug_frame   0x0000666c       0x40 c:/program files/microchip/xc32/v4.21/bin/bin/../../lib/gcc/pic32c/8.3.1/../../../../pic32c/lib/thumb/v7e-m+fp/hard\libg-musl.a(__fmt_x.o)
 .debug_frame   0x000066ac       0x28 c:/program files/microchip/xc32/v4.21/bin/bin/../../lib/gcc/pic32c/8.3.1/../../../../pic32c/lib/thumb/v7e-m+fp/hard\libg-musl.a(__pop_int.o)
 .debug_frame   0x000066d4       0x28 c:/program files/microchip/xc32/v4.21/bin/bin/../../lib/gcc/pic32c/8.3.1/../../../../pic32c/lib/thumb/v7e-m+fp/hard\libg-musl.a(__pop_ptr.o)
 .debug_frame   0x000066fc       0xd8 c:/program files/microchip/xc32/v4.21/bin/bin/../../lib/gcc/pic32c/8.3.1/../../../../pic32c/lib/thumb/v7e-m+fp/hard\libg-musl.a(__printf_core.o)
 .debug_frame   0x000067d4       0x48 c:/program files/microchip/xc32/v4.21/bin/bin/../../lib/gcc/pic32c/8.3.1/../../../../pic32c/lib/thumb/v7e-m+fp/hard\libg-musl.a(stdout.o)
 .debug_frame   0x0000681c       0x28 c:/program files/microchip/xc32/v4.21/bin/bin/../../lib/gcc/pic32c/8.3.1/../../../../pic32c/lib/thumb/v7e-m+fp/hard\libg-musl.a(atoi.o)
 .debug_frame   0x00006844       0x28 c:/program files/microchip/xc32/v4.21/bin/bin/../../lib/gcc/pic32c/8.3.1/../../../../pic32c/lib/thumb/v7e-m+fp/hard\libg-musl.a(memcpy.o)
 .debug_frame   0x0000686c       0x20 c:/program files/microchip/xc32/v4.21/bin/bin/../../lib/gcc/pic32c/8.3.1/../../../../pic32c/lib/thumb/v7e-m+fp/hard\libg-musl.a(memset.o)
 .debug_frame   0x0000688c       0x20 c:/program files/microchip/xc32/v4.21/bin/bin/../../lib/gcc/pic32c/8.3.1/../../../../pic32c/lib/thumb/v7e-m+fp/hard\libg-musl.a(strlen.o)
 .debug_frame   0x000068ac       0x2c c:/program files/microchip/xc32/v4.21/bin/bin/../../lib/gcc/pic32c/8.3.1/../../../../pic32c/lib/thumb/v7e-m+fp/hard\libg-musl.a(strstr.o)
 .debug_frame   0x000068d8       0x28 c:/program files/microchip/xc32/v4.21/bin/bin/../../lib/gcc/pic32c/8.3.1/../../../../pic32c/lib/thumb/v7e-m+fp/hard\libg-musl.a(strcpy.o)
 .debug_frame   0x00006900       0x30 c:/program files/microchip/xc32/v4.21/bin/bin/../../lib/gcc/pic32c/8.3.1/../../../../pic32c/lib/thumb/v7e-m+fp/hard\libg-musl.a(tolower.o)
 .debug_frame   0x00006930       0x30 c:/program files/microchip/xc32/v4.21/bin/bin/../../lib/gcc/pic32c/8.3.1/../../../../pic32c/lib/thumb/v7e-m+fp/hard\libg-musl.a(toupper.o)
 .debug_frame   0x00006960       0x2c c:/program files/microchip/xc32/v4.21/bin/bin/../../lib/gcc/pic32c/8.3.1/../../../../pic32c/lib/thumb/v7e-m+fp/hard\libg-musl.a(__int_vfprintf.o)
 .debug_frame   0x0000698c       0x20 c:/program files/microchip/xc32/v4.21/bin/bin/../../lib/gcc/pic32c/8.3.1/../../../../pic32c/lib/thumb/v7e-m+fp/hard\libg-musl.a(__int_vsprintf.o)
 .debug_frame   0x000069ac       0x30 c:/program files/microchip/xc32/v4.21/bin/bin/../../lib/gcc/pic32c/8.3.1/../../../../pic32c/lib/thumb/v7e-m+fp/hard\libg-musl.a(__io_init_needed.o)
 .debug_frame   0x000069dc       0x20 c:/program files/microchip/xc32/v4.21/bin/bin/../../lib/gcc/pic32c/8.3.1/../../../../pic32c/lib/thumb/v7e-m+fp/hard\libg-musl.a(__pop_float.o)
 .debug_frame   0x000069fc       0x20 c:/program files/microchip/xc32/v4.21/bin/bin/../../lib/gcc/pic32c/8.3.1/../../../../pic32c/lib/thumb/v7e-m+fp/hard\libg-musl.a(stpcpy.o)
 .debug_frame   0x00006a1c       0x34 c:/program files/microchip/xc32/v4.21/bin/bin/../../lib/gcc/pic32c/8.3.1/../../../../pic32c/lib/thumb/v7e-m+fp/hard\libg-musl.a(__int_vsnprintf.o)
 .debug_frame   0x00006a50       0x38 c:/program files/microchip/xc32/v4.21/bin/bin/../../lib/gcc/pic32c/8.3.1/../../../../pic32c/lib/thumb/v7e-m+fp/hard\libg-musl.a(__init_stdio.o)
 .debug_frame   0x00006a88       0x20 c:/program files/microchip/xc32/v4.21/bin/bin/../../lib/gcc/pic32c/8.3.1/../../../../pic32c/lib/thumb/v7e-m+fp/hard\libg-musl.a(__io_file_needed.o)
 .debug_frame   0x00006aa8       0x3c c:/program files/microchip/xc32/v4.21/bin/bin/../../lib/gcc/pic32c/8.3.1/../../../../pic32c/lib/thumb/v7e-m+fp/hard\libg-musl.a(__out.o)
 .debug_frame   0x00006ae4       0x2c c:/program files/microchip/xc32/v4.21/bin/bin/../../lib/gcc/pic32c/8.3.1/thumb/v7e-m+fp/hard\libgcc.a(_aeabi_uldivmod.o)
 .debug_frame   0x00006b10       0x38 c:/program files/microchip/xc32/v4.21/bin/bin/../../lib/gcc/pic32c/8.3.1/thumb/v7e-m+fp/hard\libgcc.a(_udivmoddi4.o)
 .debug_frame   0x00006b48       0x2c c:/program files/microchip/xc32/v4.21/bin/bin/../../lib/gcc/pic32c/8.3.1/../../../../pic32c/lib/thumb/v7e-m+fp/hard\libpic32c.a(write.o)
 .debug_frame   0x00006b74       0x20 c:/program files/microchip/xc32/v4.21/bin/bin/../../lib/gcc/pic32c/8.3.1/../../../../pic32c/lib/thumb/v7e-m+fp/hard\libpic32c.a(_mon_putc.o)

.debug_ranges   0x00000000      0x3b0
 .debug_ranges  0x00000000       0x18 C:\Users\Loyola\AppData\Local\Temp\cc65FL0A.o
 .debug_ranges  0x00000018       0x10 c:/program files/microchip/xc32/v4.21/bin/bin/../../lib/gcc/pic32c/8.3.1/../../../../pic32c/lib/thumb/v7e-m+fp/hard\libpic32c.a(data_init_wrapper.o)
 .debug_ranges  0x00000028       0x10 c:/program files/microchip/xc32/v4.21/bin/bin/../../lib/gcc/pic32c/8.3.1/../../../../pic32c/lib/thumb/v7e-m+fp/hard\libpic32c.a(data_init_0_1.o)
 .debug_ranges  0x00000038       0x40 c:/program files/microchip/xc32/v4.21/bin/bin/../../lib/gcc/pic32c/8.3.1/../../../../pic32c/lib/thumb/v7e-m+fp/hard\libg-musl.a(__libc_start_main.o)
 .debug_ranges  0x00000078       0x18 c:/program files/microchip/xc32/v4.21/bin/bin/../../lib/gcc/pic32c/8.3.1/../../../../pic32c/lib/thumb/v7e-m+fp/hard\libg-musl.a(__sio_printf_doux.o)
 .debug_ranges  0x00000090       0x18 c:/program files/microchip/xc32/v4.21/bin/bin/../../lib/gcc/pic32c/8.3.1/../../../../pic32c/lib/thumb/v7e-m+fp/hard\libg-musl.a(__sio_sprintf_doux.o)
 .debug_ranges  0x000000a8       0x10 c:/program files/microchip/xc32/v4.21/bin/bin/../../lib/gcc/pic32c/8.3.1/../../../../pic32c/lib/thumb/v7e-m+fp/hard\libg-musl.a(__fmt_d.o)
 .debug_ranges  0x000000b8       0x10 c:/program files/microchip/xc32/v4.21/bin/bin/../../lib/gcc/pic32c/8.3.1/../../../../pic32c/lib/thumb/v7e-m+fp/hard\libg-musl.a(__fmt_o.o)
 .debug_ranges  0x000000c8       0x10 c:/program files/microchip/xc32/v4.21/bin/bin/../../lib/gcc/pic32c/8.3.1/../../../../pic32c/lib/thumb/v7e-m+fp/hard\libg-musl.a(__fmt_s.o)
 .debug_ranges  0x000000d8       0x18 c:/program files/microchip/xc32/v4.21/bin/bin/../../lib/gcc/pic32c/8.3.1/../../../../pic32c/lib/thumb/v7e-m+fp/hard\libg-musl.a(__fmt_u.o)
 .debug_ranges  0x000000f0       0x10 c:/program files/microchip/xc32/v4.21/bin/bin/../../lib/gcc/pic32c/8.3.1/../../../../pic32c/lib/thumb/v7e-m+fp/hard\libg-musl.a(__fmt_x.o)
 .debug_ranges  0x00000100       0x10 c:/program files/microchip/xc32/v4.21/bin/bin/../../lib/gcc/pic32c/8.3.1/../../../../pic32c/lib/thumb/v7e-m+fp/hard\libg-musl.a(__pop_int.o)
 .debug_ranges  0x00000110       0x10 c:/program files/microchip/xc32/v4.21/bin/bin/../../lib/gcc/pic32c/8.3.1/../../../../pic32c/lib/thumb/v7e-m+fp/hard\libg-musl.a(__pop_ptr.o)
 .debug_ranges  0x00000120       0x68 c:/program files/microchip/xc32/v4.21/bin/bin/../../lib/gcc/pic32c/8.3.1/../../../../pic32c/lib/thumb/v7e-m+fp/hard\libg-musl.a(__printf_core.o)
 .debug_ranges  0x00000188       0x20 c:/program files/microchip/xc32/v4.21/bin/bin/../../lib/gcc/pic32c/8.3.1/../../../../pic32c/lib/thumb/v7e-m+fp/hard\libg-musl.a(stdout.o)
 .debug_ranges  0x000001a8       0x10 c:/program files/microchip/xc32/v4.21/bin/bin/../../lib/gcc/pic32c/8.3.1/../../../../pic32c/lib/thumb/v7e-m+fp/hard\libg-musl.a(atoi.o)
 .debug_ranges  0x000001b8       0x10 c:/program files/microchip/xc32/v4.21/bin/bin/../../lib/gcc/pic32c/8.3.1/../../../../pic32c/lib/thumb/v7e-m+fp/hard\libg-musl.a(memcpy.o)
 .debug_ranges  0x000001c8       0x10 c:/program files/microchip/xc32/v4.21/bin/bin/../../lib/gcc/pic32c/8.3.1/../../../../pic32c/lib/thumb/v7e-m+fp/hard\libg-musl.a(memset.o)
 .debug_ranges  0x000001d8       0x10 c:/program files/microchip/xc32/v4.21/bin/bin/../../lib/gcc/pic32c/8.3.1/../../../../pic32c/lib/thumb/v7e-m+fp/hard\libg-musl.a(strlen.o)
 .debug_ranges  0x000001e8       0x10 c:/program files/microchip/xc32/v4.21/bin/bin/../../lib/gcc/pic32c/8.3.1/../../../../pic32c/lib/thumb/v7e-m+fp/hard\libg-musl.a(strstr.o)
 .debug_ranges  0x000001f8       0x10 c:/program files/microchip/xc32/v4.21/bin/bin/../../lib/gcc/pic32c/8.3.1/../../../../pic32c/lib/thumb/v7e-m+fp/hard\libg-musl.a(strcpy.o)
 .debug_ranges  0x00000208       0x18 c:/program files/microchip/xc32/v4.21/bin/bin/../../lib/gcc/pic32c/8.3.1/../../../../pic32c/lib/thumb/v7e-m+fp/hard\libg-musl.a(tolower.o)
 .debug_ranges  0x00000220       0x18 c:/program files/microchip/xc32/v4.21/bin/bin/../../lib/gcc/pic32c/8.3.1/../../../../pic32c/lib/thumb/v7e-m+fp/hard\libg-musl.a(toupper.o)
 .debug_ranges  0x00000238       0x10 c:/program files/microchip/xc32/v4.21/bin/bin/../../lib/gcc/pic32c/8.3.1/../../../../pic32c/lib/thumb/v7e-m+fp/hard\libg-musl.a(__int_vfprintf.o)
 .debug_ranges  0x00000248       0x10 c:/program files/microchip/xc32/v4.21/bin/bin/../../lib/gcc/pic32c/8.3.1/../../../../pic32c/lib/thumb/v7e-m+fp/hard\libg-musl.a(__int_vsprintf.o)
 .debug_ranges  0x00000258       0x18 c:/program files/microchip/xc32/v4.21/bin/bin/../../lib/gcc/pic32c/8.3.1/../../../../pic32c/lib/thumb/v7e-m+fp/hard\libg-musl.a(__io_init_needed.o)
 .debug_ranges  0x00000270       0x10 c:/program files/microchip/xc32/v4.21/bin/bin/../../lib/gcc/pic32c/8.3.1/../../../../pic32c/lib/thumb/v7e-m+fp/hard\libg-musl.a(__pop_float.o)
 .debug_ranges  0x00000280       0x10 c:/program files/microchip/xc32/v4.21/bin/bin/../../lib/gcc/pic32c/8.3.1/../../../../pic32c/lib/thumb/v7e-m+fp/hard\libg-musl.a(stpcpy.o)
 .debug_ranges  0x00000290       0x10 c:/program files/microchip/xc32/v4.21/bin/bin/../../lib/gcc/pic32c/8.3.1/../../../../pic32c/lib/thumb/v7e-m+fp/hard\libg-musl.a(__int_vsnprintf.o)
 .debug_ranges  0x000002a0       0x18 c:/program files/microchip/xc32/v4.21/bin/bin/../../lib/gcc/pic32c/8.3.1/../../../../pic32c/lib/thumb/v7e-m+fp/hard\libg-musl.a(__init_stdio.o)
 .debug_ranges  0x000002b8       0x10 c:/program files/microchip/xc32/v4.21/bin/bin/../../lib/gcc/pic32c/8.3.1/../../../../pic32c/lib/thumb/v7e-m+fp/hard\libg-musl.a(__io_file_needed.o)
 .debug_ranges  0x000002c8       0x18 c:/program files/microchip/xc32/v4.21/bin/bin/../../lib/gcc/pic32c/8.3.1/../../../../pic32c/lib/thumb/v7e-m+fp/hard\libg-musl.a(__out.o)
 .debug_ranges  0x000002e0       0xb0 c:/program files/microchip/xc32/v4.21/bin/bin/../../lib/gcc/pic32c/8.3.1/thumb/v7e-m+fp/hard\libgcc.a(_udivmoddi4.o)
 .debug_ranges  0x00000390       0x10 c:/program files/microchip/xc32/v4.21/bin/bin/../../lib/gcc/pic32c/8.3.1/../../../../pic32c/lib/thumb/v7e-m+fp/hard\libpic32c.a(write.o)
 .debug_ranges  0x000003a0       0x10 c:/program files/microchip/xc32/v4.21/bin/bin/../../lib/gcc/pic32c/8.3.1/../../../../pic32c/lib/thumb/v7e-m+fp/hard\libpic32c.a(_mon_putc.o)

.note.GNU-stack
                0x00000000        0x0
 .note.GNU-stack
                0x00000000        0x0 c:/program files/microchip/xc32/v4.21/bin/bin/../../lib/gcc/pic32c/8.3.1/../../../../pic32c/lib/thumb/v7e-m+fp/hard\libg-musl.a(__libc_start_main.o)
 .note.GNU-stack
                0x00000000        0x0 c:/program files/microchip/xc32/v4.21/bin/bin/../../lib/gcc/pic32c/8.3.1/../../../../pic32c/lib/thumb/v7e-m+fp/hard\libg-musl.a(libc.o)
 .note.GNU-stack
                0x00000000        0x0 c:/program files/microchip/xc32/v4.21/bin/bin/../../lib/gcc/pic32c/8.3.1/../../../../pic32c/lib/thumb/v7e-m+fp/hard\libg-musl.a(__sio_printf_doux.o)
 .note.GNU-stack
                0x00000000        0x0 c:/program files/microchip/xc32/v4.21/bin/bin/../../lib/gcc/pic32c/8.3.1/../../../../pic32c/lib/thumb/v7e-m+fp/hard\libg-musl.a(__sio_sprintf_doux.o)
 .note.GNU-stack
                0x00000000        0x0 c:/program files/microchip/xc32/v4.21/bin/bin/../../lib/gcc/pic32c/8.3.1/../../../../pic32c/lib/thumb/v7e-m+fp/hard\libg-musl.a(__fmt_d.o)
 .note.GNU-stack
                0x00000000        0x0 c:/program files/microchip/xc32/v4.21/bin/bin/../../lib/gcc/pic32c/8.3.1/../../../../pic32c/lib/thumb/v7e-m+fp/hard\libg-musl.a(__fmt_o.o)
 .note.GNU-stack
                0x00000000        0x0 c:/program files/microchip/xc32/v4.21/bin/bin/../../lib/gcc/pic32c/8.3.1/../../../../pic32c/lib/thumb/v7e-m+fp/hard\libg-musl.a(__fmt_s.o)
 .note.GNU-stack
                0x00000000        0x0 c:/program files/microchip/xc32/v4.21/bin/bin/../../lib/gcc/pic32c/8.3.1/../../../../pic32c/lib/thumb/v7e-m+fp/hard\libg-musl.a(__fmt_u.o)
 .note.GNU-stack
                0x00000000        0x0 c:/program files/microchip/xc32/v4.21/bin/bin/../../lib/gcc/pic32c/8.3.1/../../../../pic32c/lib/thumb/v7e-m+fp/hard\libg-musl.a(__fmt_x.o)
 .note.GNU-stack
                0x00000000        0x0 c:/program files/microchip/xc32/v4.21/bin/bin/../../lib/gcc/pic32c/8.3.1/../../../../pic32c/lib/thumb/v7e-m+fp/hard\libg-musl.a(__pop_int.o)
 .note.GNU-stack
                0x00000000        0x0 c:/program files/microchip/xc32/v4.21/bin/bin/../../lib/gcc/pic32c/8.3.1/../../../../pic32c/lib/thumb/v7e-m+fp/hard\libg-musl.a(__pop_ptr.o)
 .note.GNU-stack
                0x00000000        0x0 c:/program files/microchip/xc32/v4.21/bin/bin/../../lib/gcc/pic32c/8.3.1/../../../../pic32c/lib/thumb/v7e-m+fp/hard\libg-musl.a(__printf_core.o)
 .note.GNU-stack
                0x00000000        0x0 c:/program files/microchip/xc32/v4.21/bin/bin/../../lib/gcc/pic32c/8.3.1/../../../../pic32c/lib/thumb/v7e-m+fp/hard\libg-musl.a(stdout.o)
 .note.GNU-stack
                0x00000000        0x0 c:/program files/microchip/xc32/v4.21/bin/bin/../../lib/gcc/pic32c/8.3.1/../../../../pic32c/lib/thumb/v7e-m+fp/hard\libg-musl.a(atoi.o)
 .note.GNU-stack
                0x00000000        0x0 c:/program files/microchip/xc32/v4.21/bin/bin/../../lib/gcc/pic32c/8.3.1/../../../../pic32c/lib/thumb/v7e-m+fp/hard\libg-musl.a(memcpy.o)
 .note.GNU-stack
                0x00000000        0x0 c:/program files/microchip/xc32/v4.21/bin/bin/../../lib/gcc/pic32c/8.3.1/../../../../pic32c/lib/thumb/v7e-m+fp/hard\libg-musl.a(memset.o)
 .note.GNU-stack
                0x00000000        0x0 c:/program files/microchip/xc32/v4.21/bin/bin/../../lib/gcc/pic32c/8.3.1/../../../../pic32c/lib/thumb/v7e-m+fp/hard\libg-musl.a(strlen.o)
 .note.GNU-stack
                0x00000000        0x0 c:/program files/microchip/xc32/v4.21/bin/bin/../../lib/gcc/pic32c/8.3.1/../../../../pic32c/lib/thumb/v7e-m+fp/hard\libg-musl.a(strstr.o)
 .note.GNU-stack
                0x00000000        0x0 c:/program files/microchip/xc32/v4.21/bin/bin/../../lib/gcc/pic32c/8.3.1/../../../../pic32c/lib/thumb/v7e-m+fp/hard\libg-musl.a(strcpy.o)
 .note.GNU-stack
                0x00000000        0x0 c:/program files/microchip/xc32/v4.21/bin/bin/../../lib/gcc/pic32c/8.3.1/../../../../pic32c/lib/thumb/v7e-m+fp/hard\libg-musl.a(tolower.o)
 .note.GNU-stack
                0x00000000        0x0 c:/program files/microchip/xc32/v4.21/bin/bin/../../lib/gcc/pic32c/8.3.1/../../../../pic32c/lib/thumb/v7e-m+fp/hard\libg-musl.a(toupper.o)
 .note.GNU-stack
                0x00000000        0x0 c:/program files/microchip/xc32/v4.21/bin/bin/../../lib/gcc/pic32c/8.3.1/../../../../pic32c/lib/thumb/v7e-m+fp/hard\libg-musl.a(__environ.o)
 .note.GNU-stack
                0x00000000        0x0 c:/program files/microchip/xc32/v4.21/bin/bin/../../lib/gcc/pic32c/8.3.1/../../../../pic32c/lib/thumb/v7e-m+fp/hard\libg-musl.a(__errno_location.o)
 .note.GNU-stack
                0x00000000        0x0 c:/program files/microchip/xc32/v4.21/bin/bin/../../lib/gcc/pic32c/8.3.1/../../../../pic32c/lib/thumb/v7e-m+fp/hard\libg-musl.a(__int_vfprintf.o)
 .note.GNU-stack
                0x00000000        0x0 c:/program files/microchip/xc32/v4.21/bin/bin/../../lib/gcc/pic32c/8.3.1/../../../../pic32c/lib/thumb/v7e-m+fp/hard\libg-musl.a(__int_vsprintf.o)
 .note.GNU-stack
                0x00000000        0x0 c:/program files/microchip/xc32/v4.21/bin/bin/../../lib/gcc/pic32c/8.3.1/../../../../pic32c/lib/thumb/v7e-m+fp/hard\libg-musl.a(__io_init_needed.o)
 .note.GNU-stack
                0x00000000        0x0 c:/program files/microchip/xc32/v4.21/bin/bin/../../lib/gcc/pic32c/8.3.1/../../../../pic32c/lib/thumb/v7e-m+fp/hard\libg-musl.a(__pop_float.o)
 .note.GNU-stack
                0x00000000        0x0 c:/program files/microchip/xc32/v4.21/bin/bin/../../lib/gcc/pic32c/8.3.1/../../../../pic32c/lib/thumb/v7e-m+fp/hard\libg-musl.a(stpcpy.o)
 .note.GNU-stack
                0x00000000        0x0 c:/program files/microchip/xc32/v4.21/bin/bin/../../lib/gcc/pic32c/8.3.1/../../../../pic32c/lib/thumb/v7e-m+fp/hard\libg-musl.a(__int_vsnprintf.o)
 .note.GNU-stack
                0x00000000        0x0 c:/program files/microchip/xc32/v4.21/bin/bin/../../lib/gcc/pic32c/8.3.1/../../../../pic32c/lib/thumb/v7e-m+fp/hard\libg-musl.a(__init_stdio.o)
 .note.GNU-stack
                0x00000000        0x0 c:/program files/microchip/xc32/v4.21/bin/bin/../../lib/gcc/pic32c/8.3.1/../../../../pic32c/lib/thumb/v7e-m+fp/hard\libg-musl.a(__io_file_needed.o)
 .note.GNU-stack
                0x00000000        0x0 c:/program files/microchip/xc32/v4.21/bin/bin/../../lib/gcc/pic32c/8.3.1/../../../../pic32c/lib/thumb/v7e-m+fp/hard\libg-musl.a(__out.o)

__xc_reference_data
                0x00000000       0x18
 __xc_reference_data
                0x00000000        0x4 c:/program files/microchip/xc32/v4.21/bin/bin/../../lib/gcc/pic32c/8.3.1/../../../../pic32c/lib/thumb/v7e-m+fp/hard\libg-musl.a(stdout.o)
                0x00000000                __stdout_needs_init
 __xc_reference_data
                0x00000004        0xc c:/program files/microchip/xc32/v4.21/bin/bin/../../lib/gcc/pic32c/8.3.1/../../../../pic32c/lib/thumb/v7e-m+fp/hard\libg-musl.a(__io_init_needed.o)
                0x00000004                __io_init_needed
                0x0000000c                __io_init_needs_file
 __xc_reference_data
                0x00000010        0x8 c:/program files/microchip/xc32/v4.21/bin/bin/../../lib/gcc/pic32c/8.3.1/../../../../pic32c/lib/thumb/v7e-m+fp/hard\libg-musl.a(__io_file_needed.o)
                0x00000010                __io_file_needed

.stack          0x20002aa0      0x100
 .stack         0x20002aa0      0x100 stack

.bss%1          0x20000264     0x2761
 .bss           0x20000264     0x2588 build/Default/debug/thirdparty/RTOS/freertos/FreeRTOSV10.0.0/Source/portable/MemMang/heap_1.o
 .bss           0x200027ec       0xec build/Default/debug/thirdparty/RTOS/freertos/FreeRTOSV10.0.0/Source/tasks.o
                0x200027ec                pxCurrentTCB
 .bss           0x200028d8       0x50 c:/program files/microchip/xc32/v4.21/bin/bin/../../lib/gcc/pic32c/8.3.1/../../../../pic32c/lib/thumb/v7e-m+fp/hard\libg-musl.a(libc.o)
                0x200028d8                __progname_full
                0x200028d8                program_invocation_name
                0x200028dc                program_invocation_short_name
                0x200028dc                __progname
                0x200028e0                __sysinfo
                0x200028e4                __hwcap
                0x200028e8                __libc
 .bss           0x20002928       0x3c build/Default/debug/thirdparty/RTOS/freertos/FreeRTOSV10.0.0/Source/timers.o
 .bss           0x20002964       0x28 build/Default/debug/hpl/sercom/hpl_sercom.o
 .bss           0x2000298c       0x1c c:/program files/microchip/xc32/v4.21/bin/bin/../../lib/gcc/pic32c/8.3.1/thumb/v7e-m+fp/hard/crtbegin.o
 .bss           0x200029a8        0x8 build/Default/debug/thirdparty/RTOS/freertos/FreeRTOSV10.0.0/Source/portable/GCC/ARM_CM4F/port.o
 .bss           0x200029b0        0x8 build/Default/debug/main.o
                0x200029b0                WiFiTXQueue
                0x200029b4                WiFiRXQueue
 .bss           0x200029b8        0x8 c:/program files/microchip/xc32/v4.21/bin/bin/../../lib/gcc/pic32c/8.3.1/../../../../pic32c/lib/thumb/v7e-m+fp/hard\libg-musl.a(stdout.o)
                0x200029bc                __stdout_used
 .bss           0x200029c0        0x5 build/Default/debug/hal/utils/src/utils_event.o

.bss%11         0x200029c8       0x1c
 .bss           0x200029c8        0x4 build/Default/debug/hal/src/hal_delay.o
 .bss           0x200029cc        0x4 build/Default/debug/hal/utils/src/utils_syscalls.o
 .bss           0x200029d0        0x4 build/Default/debug/rtos_start.o
 .bss           0x200029d4        0x4 build/Default/debug/WiFi.o
                0x200029d4                wifi_thread_state
 .bss           0x200029d8        0x4 c:/program files/microchip/xc32/v4.21/bin/bin/../../lib/gcc/pic32c/8.3.1/../../../../pic32c/lib/thumb/v7e-m+fp/hard\libpic32c.a(data_init_0_1.o)
 .bss           0x200029dc        0x4 c:/program files/microchip/xc32/v4.21/bin/bin/../../lib/gcc/pic32c/8.3.1/../../../../pic32c/lib/thumb/v7e-m+fp/hard\libg-musl.a(__environ.o)
                0x200029dc                __environ
                0x200029dc                environ
                0x200029dc                ___environ
                0x200029dc                _environ
 .bss           0x200029e0        0x4 c:/program files/microchip/xc32/v4.21/bin/bin/../../lib/gcc/pic32c/8.3.1/../../../../pic32c/lib/thumb/v7e-m+fp/hard\libg-musl.a(__errno_location.o)
                0x200029e0                __errno_val

.bss%18         0x200029c5        0x1
 .bss           0x200029c5        0x1 C:\Users\Loyola\AppData\Local\Temp\cc65FL0A.o

.bss%z1         0x00000000        0x0
 .bss           0x00000000        0x0 c:/program files/microchip/xc32/v4.21/bin/bin/../../lib/gcc/pic32c/8.3.1/thumb/v7e-m+fp/hard/crtn.o

.bss%z2         0x00000000        0x0
 .bss           0x00000000        0x0 c:/program files/microchip/xc32/v4.21/bin/bin/../../lib/gcc/pic32c/8.3.1/thumb/v7e-m+fp/hard/crtend.o

.bss%z3         0x00000000        0x0
 .bss           0x00000000        0x0 c:/program files/microchip/xc32/v4.21/bin/bin/../../lib/gcc/pic32c/8.3.1/../../../../pic32c/lib/thumb/v7e-m+fp/hard\libpic32c.a(_mon_putc.o)

.bss%z4         0x00000000        0x0
 .bss           0x00000000        0x0 c:/program files/microchip/xc32/v4.21/bin/bin/../../lib/gcc/pic32c/8.3.1/../../../../pic32c/lib/thumb/v7e-m+fp/hard\libpic32c.a(write.o)

.bss%z5         0x00000000        0x0
 .bss           0x00000000        0x0 c:/program files/microchip/xc32/v4.21/bin/bin/../../lib/gcc/pic32c/8.3.1/thumb/v7e-m+fp/hard\libgcc.a(_dvmd_tls.o)

.bss%z6         0x00000000        0x0
 .bss           0x00000000        0x0 c:/program files/microchip/xc32/v4.21/bin/bin/../../lib/gcc/pic32c/8.3.1/thumb/v7e-m+fp/hard\libgcc.a(_udivmoddi4.o)

.bss%z7         0x00000000        0x0
 .bss           0x00000000        0x0 c:/program files/microchip/xc32/v4.21/bin/bin/../../lib/gcc/pic32c/8.3.1/thumb/v7e-m+fp/hard\libgcc.a(_aeabi_uldivmod.o)

.bss%z8         0x00000000        0x0
 .bss           0x00000000        0x0 c:/program files/microchip/xc32/v4.21/bin/bin/../../lib/gcc/pic32c/8.3.1/../../../../pic32c/lib/thumb/v7e-m+fp/hard\libg-musl.a(__out.o)

.bss%z9         0x00000000        0x0
 .bss           0x00000000        0x0 c:/program files/microchip/xc32/v4.21/bin/bin/../../lib/gcc/pic32c/8.3.1/../../../../pic32c/lib/thumb/v7e-m+fp/hard\libg-musl.a(__io_file_needed.o)

.bss%z10        0x00000000        0x0
 .bss           0x00000000        0x0 c:/program files/microchip/xc32/v4.21/bin/bin/../../lib/gcc/pic32c/8.3.1/../../../../pic32c/lib/thumb/v7e-m+fp/hard\libg-musl.a(__init_stdio.o)

.bss%z11        0x00000000        0x0
 .bss           0x00000000        0x0 c:/program files/microchip/xc32/v4.21/bin/bin/../../lib/gcc/pic32c/8.3.1/../../../../pic32c/lib/thumb/v7e-m+fp/hard\libg-musl.a(__int_vsnprintf.o)

.bss%z12        0x00000000        0x0
 .bss           0x00000000        0x0 c:/program files/microchip/xc32/v4.21/bin/bin/../../lib/gcc/pic32c/8.3.1/../../../../pic32c/lib/thumb/v7e-m+fp/hard\libg-musl.a(stpcpy.o)

.bss%z13        0x00000000        0x0
 .bss           0x00000000        0x0 c:/program files/microchip/xc32/v4.21/bin/bin/../../lib/gcc/pic32c/8.3.1/../../../../pic32c/lib/thumb/v7e-m+fp/hard\libg-musl.a(__pop_float.o)

.bss%z14        0x00000000        0x0
 .bss           0x00000000        0x0 c:/program files/microchip/xc32/v4.21/bin/bin/../../lib/gcc/pic32c/8.3.1/../../../../pic32c/lib/thumb/v7e-m+fp/hard\libg-musl.a(__io_init_needed.o)

.bss%z15        0x00000000        0x0
 .bss           0x00000000        0x0 c:/program files/microchip/xc32/v4.21/bin/bin/../../lib/gcc/pic32c/8.3.1/../../../../pic32c/lib/thumb/v7e-m+fp/hard\libg-musl.a(__int_vsprintf.o)

.bss%z16        0x00000000        0x0
 .bss           0x00000000        0x0 c:/program files/microchip/xc32/v4.21/bin/bin/../../lib/gcc/pic32c/8.3.1/../../../../pic32c/lib/thumb/v7e-m+fp/hard\libg-musl.a(__int_vfprintf.o)

.bss%z17        0x00000000        0x0
 .bss           0x00000000        0x0 c:/program files/microchip/xc32/v4.21/bin/bin/../../lib/gcc/pic32c/8.3.1/../../../../pic32c/lib/thumb/v7e-m+fp/hard\libg-musl.a(toupper.o)

.bss%z18        0x00000000        0x0
 .bss           0x00000000        0x0 c:/program files/microchip/xc32/v4.21/bin/bin/../../lib/gcc/pic32c/8.3.1/../../../../pic32c/lib/thumb/v7e-m+fp/hard\libg-musl.a(tolower.o)

.bss%z19        0x00000000        0x0
 .bss           0x00000000        0x0 c:/program files/microchip/xc32/v4.21/bin/bin/../../lib/gcc/pic32c/8.3.1/../../../../pic32c/lib/thumb/v7e-m+fp/hard\libg-musl.a(strcpy.o)

.bss%z20        0x00000000        0x0
 .bss           0x00000000        0x0 c:/program files/microchip/xc32/v4.21/bin/bin/../../lib/gcc/pic32c/8.3.1/../../../../pic32c/lib/thumb/v7e-m+fp/hard\libg-musl.a(strstr.o)

.bss%z21        0x00000000        0x0
 .bss           0x00000000        0x0 c:/program files/microchip/xc32/v4.21/bin/bin/../../lib/gcc/pic32c/8.3.1/../../../../pic32c/lib/thumb/v7e-m+fp/hard\libg-musl.a(strlen.o)

.bss%z22        0x00000000        0x0
 .bss           0x00000000        0x0 c:/program files/microchip/xc32/v4.21/bin/bin/../../lib/gcc/pic32c/8.3.1/../../../../pic32c/lib/thumb/v7e-m+fp/hard\libg-musl.a(memset.o)

.bss%z23        0x00000000        0x0
 .bss           0x00000000        0x0 c:/program files/microchip/xc32/v4.21/bin/bin/../../lib/gcc/pic32c/8.3.1/../../../../pic32c/lib/thumb/v7e-m+fp/hard\libg-musl.a(memcpy.o)

.bss%z24        0x00000000        0x0
 .bss           0x00000000        0x0 c:/program files/microchip/xc32/v4.21/bin/bin/../../lib/gcc/pic32c/8.3.1/../../../../pic32c/lib/thumb/v7e-m+fp/hard\libg-musl.a(atoi.o)

.bss%z25        0x00000000        0x0
 .bss           0x00000000        0x0 c:/program files/microchip/xc32/v4.21/bin/bin/../../lib/gcc/pic32c/8.3.1/../../../../pic32c/lib/thumb/v7e-m+fp/hard\libg-musl.a(__printf_core.o)

.bss%z26        0x00000000        0x0
 .bss           0x00000000        0x0 c:/program files/microchip/xc32/v4.21/bin/bin/../../lib/gcc/pic32c/8.3.1/../../../../pic32c/lib/thumb/v7e-m+fp/hard\libg-musl.a(__pop_ptr.o)

.bss%z27        0x00000000        0x0
 .bss           0x00000000        0x0 c:/program files/microchip/xc32/v4.21/bin/bin/../../lib/gcc/pic32c/8.3.1/../../../../pic32c/lib/thumb/v7e-m+fp/hard\libg-musl.a(__pop_int.o)

.bss%z28        0x00000000        0x0
 .bss           0x00000000        0x0 c:/program files/microchip/xc32/v4.21/bin/bin/../../lib/gcc/pic32c/8.3.1/../../../../pic32c/lib/thumb/v7e-m+fp/hard\libg-musl.a(__fmt_x.o)

.bss%z29        0x00000000        0x0
 .bss           0x00000000        0x0 c:/program files/microchip/xc32/v4.21/bin/bin/../../lib/gcc/pic32c/8.3.1/../../../../pic32c/lib/thumb/v7e-m+fp/hard\libg-musl.a(__fmt_u.o)

.bss%z30        0x00000000        0x0
 .bss           0x00000000        0x0 c:/program files/microchip/xc32/v4.21/bin/bin/../../lib/gcc/pic32c/8.3.1/../../../../pic32c/lib/thumb/v7e-m+fp/hard\libg-musl.a(__fmt_s.o)

.bss%z31        0x00000000        0x0
 .bss           0x00000000        0x0 c:/program files/microchip/xc32/v4.21/bin/bin/../../lib/gcc/pic32c/8.3.1/../../../../pic32c/lib/thumb/v7e-m+fp/hard\libg-musl.a(__fmt_o.o)

.bss%z32        0x00000000        0x0
 .bss           0x00000000        0x0 c:/program files/microchip/xc32/v4.21/bin/bin/../../lib/gcc/pic32c/8.3.1/../../../../pic32c/lib/thumb/v7e-m+fp/hard\libg-musl.a(__fmt_d.o)

.bss%z33        0x00000000        0x0
 .bss           0x00000000        0x0 c:/program files/microchip/xc32/v4.21/bin/bin/../../lib/gcc/pic32c/8.3.1/../../../../pic32c/lib/thumb/v7e-m+fp/hard\libg-musl.a(__sio_sprintf_doux.o)

.bss%z34        0x00000000        0x0
 .bss           0x00000000        0x0 c:/program files/microchip/xc32/v4.21/bin/bin/../../lib/gcc/pic32c/8.3.1/../../../../pic32c/lib/thumb/v7e-m+fp/hard\libg-musl.a(__sio_printf_doux.o)

.bss%z35        0x00000000        0x0
 .bss           0x00000000        0x0 c:/program files/microchip/xc32/v4.21/bin/bin/../../lib/gcc/pic32c/8.3.1/../../../../pic32c/lib/thumb/v7e-m+fp/hard\libg-musl.a(__libc_start_main.o)

.bss%z36        0x00000000        0x0
 .bss           0x00000000        0x0 c:/program files/microchip/xc32/v4.21/bin/bin/../../lib/gcc/pic32c/8.3.1/../../../../pic32c/lib/thumb/v7e-m+fp/hard\libpic32c.a(data_init_wrapper.o)

.bss%z37        0x00000000        0x0
 .bss           0x00000000        0x0 build/Default/debug/interrupts.o

.bss%z38        0x00000000        0x0
 .bss           0x00000000        0x0 build/Default/debug/atmel_start.o

.bss%z39        0x00000000        0x0
 .bss           0x00000000        0x0 build/Default/debug/driver_init.o

.bss%z40        0x00000000        0x0
 .bss           0x00000000        0x0 build/Default/debug/thirdparty/RTOS/freertos/FreeRTOSV10.0.0/rtos_port.o

.bss%z41        0x00000000        0x0
 .bss           0x00000000        0x0 build/Default/debug/thirdparty/RTOS/freertos/FreeRTOSV10.0.0/Source/stream_buffer.o

.bss%z42        0x00000000        0x0
 .bss           0x00000000        0x0 build/Default/debug/thirdparty/RTOS/freertos/FreeRTOSV10.0.0/Source/queue.o

.bss%z43        0x00000000        0x0
 .bss           0x00000000        0x0 build/Default/debug/thirdparty/RTOS/freertos/FreeRTOSV10.0.0/Source/list.o

.bss%z44        0x00000000        0x0
 .bss           0x00000000        0x0 build/Default/debug/thirdparty/RTOS/freertos/FreeRTOSV10.0.0/Source/event_groups.o

.bss%z45        0x00000000        0x0
 .bss           0x00000000        0x0 build/Default/debug/thirdparty/RTOS/freertos/FreeRTOSV10.0.0/Source/croutine.o

.bss%z46        0x00000000        0x0
 .bss           0x00000000        0x0 build/Default/debug/hpl/tcc/tcc_lite.o

.bss%z47        0x00000000        0x0
 .bss           0x00000000        0x0 build/Default/debug/hpl/ramecc/hpl_ramecc.o

.bss%z48        0x00000000        0x0
 .bss           0x00000000        0x0 build/Default/debug/hpl/pm/hpl_pm.o

.bss%z49        0x00000000        0x0
 .bss           0x00000000        0x0 build/Default/debug/hpl/oscctrl/hpl_oscctrl.o

.bss%z50        0x00000000        0x0
 .bss           0x00000000        0x0 build/Default/debug/hpl/osc32kctrl/hpl_osc32kctrl.o

.bss%z51        0x00000000        0x0
 .bss           0x00000000        0x0 build/Default/debug/hpl/mclk/hpl_mclk.o

.bss%z52        0x00000000        0x0
 .bss           0x00000000        0x0 build/Default/debug/hpl/gclk/hpl_gclk.o

.bss%z53        0x00000000        0x0
 .bss           0x00000000        0x0 build/Default/debug/hpl/dmac/hpl_dmac.o

.bss%z54        0x00000000        0x0
 .bss           0x00000000        0x0 build/Default/debug/hpl/core/hpl_init.o

.bss%z55        0x00000000        0x0
 .bss           0x00000000        0x0 build/Default/debug/hpl/core/hpl_core_m4.o

.bss%z56        0x00000000        0x0
 .bss           0x00000000        0x0 build/Default/debug/hpl/cmcc/hpl_cmcc.o

.bss%z57        0x00000000        0x0
 .bss           0x00000000        0x0 build/Default/debug/hal/utils/src/utils_list.o

.bss%z58        0x00000000        0x0
 .bss           0x00000000        0x0 build/Default/debug/hal/utils/src/utils_assert.o

.bss%z59        0x00000000        0x0
 .bss           0x00000000        0x0 build/Default/debug/hal/src/hal_usart_sync.o

.bss%z60        0x00000000        0x0
 .bss           0x00000000        0x0 build/Default/debug/hal/src/hal_sleep.o

.bss%z61        0x00000000        0x0
 .bss           0x00000000        0x0 build/Default/debug/hal/src/hal_io.o

.bss%z62        0x00000000        0x0
 .bss           0x00000000        0x0 build/Default/debug/hal/src/hal_init.o

.bss%z63        0x00000000        0x0
 .bss           0x00000000        0x0 build/Default/debug/hal/src/hal_gpio.o

.bss%z64        0x00000000        0x0
 .bss           0x00000000        0x0 build/Default/debug/hal/src/hal_cache.o

.bss%z65        0x00000000        0x0
 .bss           0x00000000        0x0 build/Default/debug/hal/src/hal_atomic.o

.bss%z66        0x00000000        0x0
 .bss           0x00000000        0x0 build/Default/debug/gcc/system_same54.o

.bss%z67        0x00000000        0x0
 .bss           0x00000000        0x0 build/Default/debug/examples/driver_examples.o

.bss%z68        0x00000000        0x0
 .bss           0x00000000        0x0 c:/program files/microchip/xc32/v4.21/bin/bin/../../lib/gcc/pic32c/8.3.1/thumb/v7e-m+fp/hard/crti.o

.data%19        0x200029e4       0x8c
 .data          0x200029e4       0x60 build/Default/debug/hpl/sercom/hpl_sercom.o
 .data          0x20002a44       0x20 c:/program files/microchip/xc32/v4.21/bin/bin/../../lib/gcc/pic32c/8.3.1/../../../../pic32c/lib/thumb/v7e-m+fp/hard\libg-musl.a(stdout.o)
                0x20002a60                _stdout
 .data          0x20002a64        0x4 c:/program files/microchip/xc32/v4.21/bin/bin/../../lib/gcc/pic32c/8.3.1/thumb/v7e-m+fp/hard/crtbegin.o
                0x20002a64                __dso_handle
 .data          0x20002a68        0x4 build/Default/debug/gcc/system_same54.o
                0x20002a68                SystemCoreClock
 .data          0x20002a6c        0x4 build/Default/debug/thirdparty/RTOS/freertos/FreeRTOSV10.0.0/Source/portable/GCC/ARM_CM4F/port.o

.eh_frame%24    0x20002a70        0x4
 .eh_frame      0x20002a70        0x4 c:/program files/microchip/xc32/v4.21/bin/bin/../../lib/gcc/pic32c/8.3.1/thumb/v7e-m+fp/hard/crtend.o

.data%z69       0x00000000        0x0
 .data          0x00000000        0x0 c:/program files/microchip/xc32/v4.21/bin/bin/../../lib/gcc/pic32c/8.3.1/thumb/v7e-m+fp/hard/crtn.o

.data%z70       0x00000000        0x0
 .data          0x00000000        0x0 c:/program files/microchip/xc32/v4.21/bin/bin/../../lib/gcc/pic32c/8.3.1/thumb/v7e-m+fp/hard/crtend.o

.data%z71       0x00000000        0x0
 .data          0x00000000        0x0 c:/program files/microchip/xc32/v4.21/bin/bin/../../lib/gcc/pic32c/8.3.1/../../../../pic32c/lib/thumb/v7e-m+fp/hard\libpic32c.a(_mon_putc.o)

.data%z72       0x00000000        0x0
 .data          0x00000000        0x0 c:/program files/microchip/xc32/v4.21/bin/bin/../../lib/gcc/pic32c/8.3.1/../../../../pic32c/lib/thumb/v7e-m+fp/hard\libpic32c.a(write.o)

.data%z73       0x00000000        0x0
 .data          0x00000000        0x0 c:/program files/microchip/xc32/v4.21/bin/bin/../../lib/gcc/pic32c/8.3.1/thumb/v7e-m+fp/hard\libgcc.a(_dvmd_tls.o)

.data%z74       0x00000000        0x0
 .data          0x00000000        0x0 c:/program files/microchip/xc32/v4.21/bin/bin/../../lib/gcc/pic32c/8.3.1/thumb/v7e-m+fp/hard\libgcc.a(_udivmoddi4.o)

.data%z75       0x00000000        0x0
 .data          0x00000000        0x0 c:/program files/microchip/xc32/v4.21/bin/bin/../../lib/gcc/pic32c/8.3.1/thumb/v7e-m+fp/hard\libgcc.a(_aeabi_uldivmod.o)

.data%z76       0x00000000        0x0
 .data          0x00000000        0x0 c:/program files/microchip/xc32/v4.21/bin/bin/../../lib/gcc/pic32c/8.3.1/../../../../pic32c/lib/thumb/v7e-m+fp/hard\libg-musl.a(__out.o)

.data%z77       0x00000000        0x0
 .data          0x00000000        0x0 c:/program files/microchip/xc32/v4.21/bin/bin/../../lib/gcc/pic32c/8.3.1/../../../../pic32c/lib/thumb/v7e-m+fp/hard\libg-musl.a(__io_file_needed.o)

.data%z78       0x00000000        0x0
 .data          0x00000000        0x0 c:/program files/microchip/xc32/v4.21/bin/bin/../../lib/gcc/pic32c/8.3.1/../../../../pic32c/lib/thumb/v7e-m+fp/hard\libg-musl.a(__init_stdio.o)

.data%z79       0x00000000        0x0
 .data          0x00000000        0x0 c:/program files/microchip/xc32/v4.21/bin/bin/../../lib/gcc/pic32c/8.3.1/../../../../pic32c/lib/thumb/v7e-m+fp/hard\libg-musl.a(__int_vsnprintf.o)

.data%z80       0x00000000        0x0
 .data          0x00000000        0x0 c:/program files/microchip/xc32/v4.21/bin/bin/../../lib/gcc/pic32c/8.3.1/../../../../pic32c/lib/thumb/v7e-m+fp/hard\libg-musl.a(stpcpy.o)

.data%z81       0x00000000        0x0
 .data          0x00000000        0x0 c:/program files/microchip/xc32/v4.21/bin/bin/../../lib/gcc/pic32c/8.3.1/../../../../pic32c/lib/thumb/v7e-m+fp/hard\libg-musl.a(__pop_float.o)

.data%z82       0x00000000        0x0
 .data          0x00000000        0x0 c:/program files/microchip/xc32/v4.21/bin/bin/../../lib/gcc/pic32c/8.3.1/../../../../pic32c/lib/thumb/v7e-m+fp/hard\libg-musl.a(__io_init_needed.o)

.data%z83       0x00000000        0x0
 .data          0x00000000        0x0 c:/program files/microchip/xc32/v4.21/bin/bin/../../lib/gcc/pic32c/8.3.1/../../../../pic32c/lib/thumb/v7e-m+fp/hard\libg-musl.a(__int_vsprintf.o)

.data%z84       0x00000000        0x0
 .data          0x00000000        0x0 c:/program files/microchip/xc32/v4.21/bin/bin/../../lib/gcc/pic32c/8.3.1/../../../../pic32c/lib/thumb/v7e-m+fp/hard\libg-musl.a(__int_vfprintf.o)

.data%z85       0x00000000        0x0
 .data          0x00000000        0x0 c:/program files/microchip/xc32/v4.21/bin/bin/../../lib/gcc/pic32c/8.3.1/../../../../pic32c/lib/thumb/v7e-m+fp/hard\libg-musl.a(__errno_location.o)

.data%z86       0x00000000        0x0
 .data          0x00000000        0x0 c:/program files/microchip/xc32/v4.21/bin/bin/../../lib/gcc/pic32c/8.3.1/../../../../pic32c/lib/thumb/v7e-m+fp/hard\libg-musl.a(__environ.o)

.data%z87       0x00000000        0x0
 .data          0x00000000        0x0 c:/program files/microchip/xc32/v4.21/bin/bin/../../lib/gcc/pic32c/8.3.1/../../../../pic32c/lib/thumb/v7e-m+fp/hard\libg-musl.a(toupper.o)

.data%z88       0x00000000        0x0
 .data          0x00000000        0x0 c:/program files/microchip/xc32/v4.21/bin/bin/../../lib/gcc/pic32c/8.3.1/../../../../pic32c/lib/thumb/v7e-m+fp/hard\libg-musl.a(tolower.o)

.data%z89       0x00000000        0x0
 .data          0x00000000        0x0 c:/program files/microchip/xc32/v4.21/bin/bin/../../lib/gcc/pic32c/8.3.1/../../../../pic32c/lib/thumb/v7e-m+fp/hard\libg-musl.a(strcpy.o)

.data%z90       0x00000000        0x0
 .data          0x00000000        0x0 c:/program files/microchip/xc32/v4.21/bin/bin/../../lib/gcc/pic32c/8.3.1/../../../../pic32c/lib/thumb/v7e-m+fp/hard\libg-musl.a(strstr.o)

.data%z91       0x00000000        0x0
 .data          0x00000000        0x0 c:/program files/microchip/xc32/v4.21/bin/bin/../../lib/gcc/pic32c/8.3.1/../../../../pic32c/lib/thumb/v7e-m+fp/hard\libg-musl.a(strlen.o)

.data%z92       0x00000000        0x0
 .data          0x00000000        0x0 c:/program files/microchip/xc32/v4.21/bin/bin/../../lib/gcc/pic32c/8.3.1/../../../../pic32c/lib/thumb/v7e-m+fp/hard\libg-musl.a(memset.o)

.data%z93       0x00000000        0x0
 .data          0x00000000        0x0 c:/program files/microchip/xc32/v4.21/bin/bin/../../lib/gcc/pic32c/8.3.1/../../../../pic32c/lib/thumb/v7e-m+fp/hard\libg-musl.a(memcpy.o)

.data%z94       0x00000000        0x0
 .data          0x00000000        0x0 c:/program files/microchip/xc32/v4.21/bin/bin/../../lib/gcc/pic32c/8.3.1/../../../../pic32c/lib/thumb/v7e-m+fp/hard\libg-musl.a(atoi.o)

.data%z95       0x00000000        0x0
 .data          0x00000000        0x0 c:/program files/microchip/xc32/v4.21/bin/bin/../../lib/gcc/pic32c/8.3.1/../../../../pic32c/lib/thumb/v7e-m+fp/hard\libg-musl.a(__printf_core.o)

.data%z96       0x00000000        0x0
 .data          0x00000000        0x0 c:/program files/microchip/xc32/v4.21/bin/bin/../../lib/gcc/pic32c/8.3.1/../../../../pic32c/lib/thumb/v7e-m+fp/hard\libg-musl.a(__pop_ptr.o)

.data%z97       0x00000000        0x0
 .data          0x00000000        0x0 c:/program files/microchip/xc32/v4.21/bin/bin/../../lib/gcc/pic32c/8.3.1/../../../../pic32c/lib/thumb/v7e-m+fp/hard\libg-musl.a(__pop_int.o)

.data%z98       0x00000000        0x0
 .data          0x00000000        0x0 c:/program files/microchip/xc32/v4.21/bin/bin/../../lib/gcc/pic32c/8.3.1/../../../../pic32c/lib/thumb/v7e-m+fp/hard\libg-musl.a(__fmt_x.o)

.data%z99       0x00000000        0x0
 .data          0x00000000        0x0 c:/program files/microchip/xc32/v4.21/bin/bin/../../lib/gcc/pic32c/8.3.1/../../../../pic32c/lib/thumb/v7e-m+fp/hard\libg-musl.a(__fmt_u.o)

.data%z100      0x00000000        0x0
 .data          0x00000000        0x0 c:/program files/microchip/xc32/v4.21/bin/bin/../../lib/gcc/pic32c/8.3.1/../../../../pic32c/lib/thumb/v7e-m+fp/hard\libg-musl.a(__fmt_s.o)

.data%z101      0x00000000        0x0
 .data          0x00000000        0x0 c:/program files/microchip/xc32/v4.21/bin/bin/../../lib/gcc/pic32c/8.3.1/../../../../pic32c/lib/thumb/v7e-m+fp/hard\libg-musl.a(__fmt_o.o)

.data%z102      0x00000000        0x0
 .data          0x00000000        0x0 c:/program files/microchip/xc32/v4.21/bin/bin/../../lib/gcc/pic32c/8.3.1/../../../../pic32c/lib/thumb/v7e-m+fp/hard\libg-musl.a(__fmt_d.o)

.data%z103      0x00000000        0x0
 .data          0x00000000        0x0 c:/program files/microchip/xc32/v4.21/bin/bin/../../lib/gcc/pic32c/8.3.1/../../../../pic32c/lib/thumb/v7e-m+fp/hard\libg-musl.a(__sio_sprintf_doux.o)

.data%z104      0x00000000        0x0
 .data          0x00000000        0x0 c:/program files/microchip/xc32/v4.21/bin/bin/../../lib/gcc/pic32c/8.3.1/../../../../pic32c/lib/thumb/v7e-m+fp/hard\libg-musl.a(__sio_printf_doux.o)

.data%z105      0x00000000        0x0
 .data          0x00000000        0x0 c:/program files/microchip/xc32/v4.21/bin/bin/../../lib/gcc/pic32c/8.3.1/../../../../pic32c/lib/thumb/v7e-m+fp/hard\libg-musl.a(libc.o)

.data%z106      0x00000000        0x0
 .data          0x00000000        0x0 c:/program files/microchip/xc32/v4.21/bin/bin/../../lib/gcc/pic32c/8.3.1/../../../../pic32c/lib/thumb/v7e-m+fp/hard\libg-musl.a(__libc_start_main.o)

.data%z107      0x00000000        0x0
 .data          0x00000000        0x0 c:/program files/microchip/xc32/v4.21/bin/bin/../../lib/gcc/pic32c/8.3.1/../../../../pic32c/lib/thumb/v7e-m+fp/hard\libpic32c.a(data_init_0_1.o)

.data%z108      0x00000000        0x0
 .data          0x00000000        0x0 c:/program files/microchip/xc32/v4.21/bin/bin/../../lib/gcc/pic32c/8.3.1/../../../../pic32c/lib/thumb/v7e-m+fp/hard\libpic32c.a(data_init_wrapper.o)

.data%z109      0x00000000        0x0
 .data          0x00000000        0x0 C:\Users\Loyola\AppData\Local\Temp\cc65FL0A.o

.data%z110      0x00000000        0x0
 .data          0x00000000        0x0 build/Default/debug/interrupts.o

.data%z111      0x00000000        0x0
 .data          0x00000000        0x0 build/Default/debug/WiFi.o

.data%z112      0x00000000        0x0
 .data          0x00000000        0x0 build/Default/debug/atmel_start.o

.data%z113      0x00000000        0x0
 .data          0x00000000        0x0 build/Default/debug/rtos_start.o

.data%z114      0x00000000        0x0
 .data          0x00000000        0x0 build/Default/debug/driver_init.o

.data%z115      0x00000000        0x0
 .data          0x00000000        0x0 build/Default/debug/main.o

.data%z116      0x00000000        0x0
 .data          0x00000000        0x0 build/Default/debug/thirdparty/RTOS/freertos/FreeRTOSV10.0.0/rtos_port.o

.data%z117      0x00000000        0x0
 .data          0x00000000        0x0 build/Default/debug/thirdparty/RTOS/freertos/FreeRTOSV10.0.0/Source/timers.o

.data%z118      0x00000000        0x0
 .data          0x00000000        0x0 build/Default/debug/thirdparty/RTOS/freertos/FreeRTOSV10.0.0/Source/tasks.o

.data%z119      0x00000000        0x0
 .data          0x00000000        0x0 build/Default/debug/thirdparty/RTOS/freertos/FreeRTOSV10.0.0/Source/stream_buffer.o

.data%z120      0x00000000        0x0
 .data          0x00000000        0x0 build/Default/debug/thirdparty/RTOS/freertos/FreeRTOSV10.0.0/Source/queue.o

.data%z121      0x00000000        0x0
 .data          0x00000000        0x0 build/Default/debug/thirdparty/RTOS/freertos/FreeRTOSV10.0.0/Source/list.o

.data%z122      0x00000000        0x0
 .data          0x00000000        0x0 build/Default/debug/thirdparty/RTOS/freertos/FreeRTOSV10.0.0/Source/event_groups.o

.data%z123      0x00000000        0x0
 .data          0x00000000        0x0 build/Default/debug/thirdparty/RTOS/freertos/FreeRTOSV10.0.0/Source/croutine.o

.data%z124      0x00000000        0x0
 .data          0x00000000        0x0 build/Default/debug/thirdparty/RTOS/freertos/FreeRTOSV10.0.0/Source/portable/MemMang/heap_1.o

.data%z125      0x00000000        0x0
 .data          0x00000000        0x0 build/Default/debug/hpl/tcc/tcc_lite.o

.data%z126      0x00000000        0x0
 .data          0x00000000        0x0 build/Default/debug/hpl/ramecc/hpl_ramecc.o

.data%z127      0x00000000        0x0
 .data          0x00000000        0x0 build/Default/debug/hpl/pm/hpl_pm.o

.data%z128      0x00000000        0x0
 .data          0x00000000        0x0 build/Default/debug/hpl/oscctrl/hpl_oscctrl.o

.data%z129      0x00000000        0x0
 .data          0x00000000        0x0 build/Default/debug/hpl/osc32kctrl/hpl_osc32kctrl.o

.data%z130      0x00000000        0x0
 .data          0x00000000        0x0 build/Default/debug/hpl/mclk/hpl_mclk.o

.data%z131      0x00000000        0x0
 .data          0x00000000        0x0 build/Default/debug/hpl/gclk/hpl_gclk.o

.data%z132      0x00000000        0x0
 .data          0x00000000        0x0 build/Default/debug/hpl/dmac/hpl_dmac.o

.data%z133      0x00000000        0x0
 .data          0x00000000        0x0 build/Default/debug/hpl/core/hpl_init.o

.data%z134      0x00000000        0x0
 .data          0x00000000        0x0 build/Default/debug/hpl/core/hpl_core_m4.o

.data%z135      0x00000000        0x0
 .data          0x00000000        0x0 build/Default/debug/hpl/cmcc/hpl_cmcc.o

.data%z136      0x00000000        0x0
 .data          0x00000000        0x0 build/Default/debug/hal/utils/src/utils_syscalls.o

.data%z137      0x00000000        0x0
 .data          0x00000000        0x0 build/Default/debug/hal/utils/src/utils_list.o

.data%z138      0x00000000        0x0
 .data          0x00000000        0x0 build/Default/debug/hal/utils/src/utils_event.o

.data%z139      0x00000000        0x0
 .data          0x00000000        0x0 build/Default/debug/hal/utils/src/utils_assert.o

.data%z140      0x00000000        0x0
 .data          0x00000000        0x0 build/Default/debug/hal/src/hal_usart_sync.o

.data%z141      0x00000000        0x0
 .data          0x00000000        0x0 build/Default/debug/hal/src/hal_sleep.o

.data%z142      0x00000000        0x0
 .data          0x00000000        0x0 build/Default/debug/hal/src/hal_io.o

.data%z143      0x00000000        0x0
 .data          0x00000000        0x0 build/Default/debug/hal/src/hal_init.o

.data%z144      0x00000000        0x0
 .data          0x00000000        0x0 build/Default/debug/hal/src/hal_gpio.o

.data%z145      0x00000000        0x0
 .data          0x00000000        0x0 build/Default/debug/hal/src/hal_delay.o

.data%z146      0x00000000        0x0
 .data          0x00000000        0x0 build/Default/debug/hal/src/hal_cache.o

.data%z147      0x00000000        0x0
 .data          0x00000000        0x0 build/Default/debug/hal/src/hal_atomic.o

.data%z148      0x00000000        0x0
 .data          0x00000000        0x0 build/Default/debug/examples/driver_examples.o

.eh_frame%z149  0x00000000        0x0
 .eh_frame      0x00000000        0x0 c:/program files/microchip/xc32/v4.21/bin/bin/../../lib/gcc/pic32c/8.3.1/thumb/v7e-m+fp/hard/crtbegin.o

.data%z150      0x00000000        0x0
 .data          0x00000000        0x0 c:/program files/microchip/xc32/v4.21/bin/bin/../../lib/gcc/pic32c/8.3.1/thumb/v7e-m+fp/hard/crti.o

.text%25        0x00000290     0x9f98
 .text          0x00000290     0x3c64 build/Default/debug/hpl/sercom/hpl_sercom.o
                0x00001456                _usart_sync_init
                0x00001476                _usart_async_init
                0x000014ea                _usart_sync_deinit
                0x00001504                _usart_async_deinit
                0x00001532                _usart_sync_calculate_baud_rate
                0x00001564                _usart_async_calculate_baud_rate
                0x00001596                _usart_sync_enable
                0x000015b0                _usart_async_enable
                0x000015ca                _usart_sync_disable
                0x000015e4                _usart_async_disable
                0x000015fe                _usart_sync_set_baud_rate
                0x0000161c                _usart_async_set_baud_rate
                0x0000163a                _usart_sync_set_data_order
                0x0000165c                _usart_async_set_data_order
                0x0000167e                _usart_sync_set_mode
                0x000016a0                _usart_async_set_mode
                0x000016c2                _usart_sync_set_parity
                0x000016e4                _usart_async_set_parity
                0x00001706                _usart_sync_set_stop_bits
                0x00001728                _usart_async_set_stop_bits
                0x0000174a                _usart_sync_set_character_size
                0x0000176c                _usart_async_set_character_size
                0x0000178e                _usart_sync_get_status
                0x000017aa                _usart_async_get_status
                0x000017c6                _usart_sync_write_byte
                0x000017e8                _usart_async_write_byte
                0x0000180a                _usart_sync_read_byte
                0x00001828                _usart_sync_is_ready_to_send
                0x00001844                _usart_sync_is_transmit_done
                0x00001860                _usart_async_is_byte_sent
                0x0000187c                _usart_sync_is_byte_received
                0x00001898                _usart_sync_set_flow_control_state
                0x000018ae                _usart_async_set_flow_control_state
                0x000018c4                _usart_sync_get_flow_control_state
                0x000018e6                _usart_async_get_flow_control_state
                0x00001908                _usart_async_enable_byte_sent_irq
                0x00001922                _usart_async_enable_tx_done_irq
                0x00001998                _usart_sync_get_hardware_index
                0x000019b4                _usart_async_get_hardware_index
                0x000019d0                _usart_async_set_irq_state
                0x000021a0                _i2c_m_async_enable
                0x000021bc                _i2c_m_async_disable
                0x000021ea                _i2c_m_async_set_baudrate
                0x000023d0                _i2c_m_async_init
                0x00002448                _i2c_m_async_deinit
                0x00002538                _i2c_m_async_transfer
                0x000025b2                _i2c_m_async_register_callback
                0x000025f6                _i2c_m_async_send_stop
                0x00002614                _i2c_m_async_get_bytes_left
                0x0000263e                _i2c_m_sync_init
                0x00002662                _i2c_m_sync_deinit
                0x00002688                _i2c_m_sync_enable
                0x000026a4                _i2c_m_sync_disable
                0x000026c2                _i2c_m_sync_set_baudrate
                0x00002888                _i2c_m_async_set_irq_state
                0x00002a16                _i2c_m_sync_transfer
                0x00002adc                _i2c_m_sync_send_stop
                0x00002c74                _i2c_s_sync_init
                0x00002ca0                _i2c_s_async_init
                0x00002d20                _i2c_s_sync_deinit
                0x00002d3c                _i2c_s_async_deinit
                0x00002d6c                _i2c_s_sync_enable
                0x00002d88                _i2c_s_async_enable
                0x00002da4                _i2c_s_sync_disable
                0x00002dc0                _i2c_s_async_disable
                0x00002ddc                _i2c_s_sync_is_10bit_addressing_on
                0x00002df8                _i2c_s_async_is_10bit_addressing_on
                0x00002e14                _i2c_s_sync_set_address
                0x00002e38                _i2c_s_async_set_address
                0x00002e5c                _i2c_s_sync_write_byte
                0x00002e7e                _i2c_s_async_write_byte
                0x00002ea0                _i2c_s_sync_read_byte
                0x00002ebe                _i2c_s_sync_is_byte_sent
                0x00002eda                _i2c_s_sync_is_byte_received
                0x00002ef6                _i2c_s_sync_get_status
                0x00002f12                _i2c_s_sync_clear_data_ready_flag
                0x00002f2e                _i2c_s_async_get_status
                0x00002f4a                _i2c_s_async_abort_transmission
                0x00002f66                _i2c_s_async_set_irq_state
                0x00003470                _spi_m_sync_init
                0x0000352e                _spi_s_sync_init
                0x0000354a                _spi_m_async_init
                0x000035c6                _spi_s_async_init
                0x000035e2                _spi_m_async_deinit
                0x00003626                _spi_s_async_deinit
                0x0000366a                _spi_m_sync_deinit
                0x00003686                _spi_s_sync_deinit
                0x000036a2                _spi_m_sync_enable
                0x000036be                _spi_s_sync_enable
                0x000036da                _spi_m_async_enable
                0x000036f6                _spi_s_async_enable
                0x00003712                _spi_m_sync_disable
                0x0000372e                _spi_s_sync_disable
                0x0000374a                _spi_m_async_disable
                0x00003766                _spi_s_async_disable
                0x00003782                _spi_m_sync_set_mode
                0x000037a6                _spi_m_async_set_mode
                0x000037ca                _spi_s_async_set_mode
                0x000037ee                _spi_s_sync_set_mode
                0x00003812                _spi_calc_baud_val
                0x00003866                _spi_m_sync_set_baudrate
                0x00003886                _spi_m_async_set_baudrate
                0x000038a6                _spi_m_sync_set_char_size
                0x000038cc                _spi_m_async_set_char_size
                0x000038f2                _spi_s_async_set_char_size
                0x00003918                _spi_s_sync_set_char_size
                0x0000393e                _spi_m_sync_set_data_order
                0x00003962                _spi_m_async_set_data_order
                0x00003986                _spi_s_async_set_data_order
                0x000039aa                _spi_s_sync_set_data_order
                0x00003b06                _spi_m_sync_trans
                0x00003bd8                _spi_m_async_enable_tx
                0x00003c08                _spi_s_async_enable_tx
                0x00003c28                _spi_m_async_enable_rx
                0x00003c58                _spi_s_async_enable_rx
                0x00003c78                _spi_m_async_enable_tx_complete
                0x00003caa                _spi_s_async_enable_ss_detect
                0x00003cca                _spi_m_async_write_one
                0x00003cee                _spi_s_async_write_one
                0x00003d12                _spi_s_sync_write_one
                0x00003d36                _spi_m_async_read_one
                0x00003d54                _spi_s_async_read_one
                0x00003d72                _spi_s_sync_read_one
                0x00003d90                _spi_m_async_register_callback
                0x00003dc2                _spi_s_async_register_callback
                0x00003de6                _spi_s_sync_is_tx_ready
                0x00003e0e                _spi_s_sync_is_rx_ready
                0x00003e36                _spi_s_sync_is_ss_deactivated
                0x00003e68                _spi_s_sync_is_error
                0x00003ea2                _spi_m_async_set_irq_state
                0x00003ece                _spi_s_async_set_irq_state
 .text          0x00003ef4     0x1e34 build/Default/debug/thirdparty/RTOS/freertos/FreeRTOSV10.0.0/Source/tasks.o
                0x00003ef4                xTaskCreate
                0x00004160                vTaskDelay
                0x000041c8                eTaskGetState
                0x00004260                vTaskSuspend
                0x000043bc                vTaskResume
                0x00004478                xTaskResumeFromISR
                0x00004558                vTaskStartScheduler
                0x000045f0                vTaskEndScheduler
                0x00004620                vTaskSuspendAll
                0x0000463c                xTaskResumeAll
                0x00004774                xTaskGetTickCount
                0x00004794                xTaskGetTickCountFromISR
                0x000047b8                uxTaskGetNumberOfTasks
                0x000047d0                pcTaskGetName
                0x00004818                uxTaskGetSystemState
                0x0000490c                xTaskIncrementTick
                0x00004a88                vTaskSwitchContext
                0x00004b40                vTaskPlaceOnEventList
                0x00004b88                vTaskPlaceOnUnorderedEventList
                0x00004bfc                vTaskPlaceOnEventListRestricted
                0x00004c50                xTaskRemoveFromEventList
                0x00004d14                vTaskRemoveFromUnorderedEventList
                0x00004dd4                vTaskSetTimeOutState
                0x00004e20                vTaskInternalSetTimeOutState
                0x00004e4c                xTaskCheckForTimeOut
                0x00004f0c                vTaskMissedYield
                0x00004f24                uxTaskGetTaskNumber
                0x00004f50                vTaskSetTaskNumber
                0x00005026                vTaskGetInfo
                0x00005218                xTaskGetCurrentTaskHandle
                0x00005238                xTaskGetSchedulerState
                0x00005274                xTaskPriorityInherit
                0x00005350                xTaskPriorityDisinherit
                0x00005428                vTaskPriorityDisinheritAfterTimeout
                0x0000557a                vTaskList
                0x000056a4                uxTaskResetEventItemValue
                0x000056d4                pvTaskIncrementMutexHeldCount
                0x000056fc                ulTaskNotifyTake
                0x0000578c                xTaskNotifyWait
                0x00005840                xTaskGenericNotify
                0x00005984                xTaskGenericNotifyFromISR
                0x00005b14                vTaskNotifyGiveFromISR
                0x00005c34                xTaskNotifyStateClear
 .text          0x00005d28     0x1540 build/Default/debug/thirdparty/RTOS/freertos/FreeRTOSV10.0.0/Source/queue.o
                0x00005d28                xQueueGenericReset
                0x00005df8                xQueueGenericCreate
                0x00005eea                xQueueCreateMutex
                0x00005f1a                xQueueGiveMutexRecursive
                0x00005f80                xQueueTakeMutexRecursive
                0x00005fea                xQueueCreateCountingSemaphore
                0x0000604c                xQueueGenericSend
                0x00006268                xQueueGenericSendFromISR
                0x000063b4                xQueueGiveFromISR
                0x000064ea                xQueueReceive
                0x000066a4                xQueueSemaphoreTake
                0x000068b4                xQueuePeek
                0x00006a70                xQueueReceiveFromISR
                0x00006b6a                xQueuePeekFromISR
                0x00006c34                uxQueueMessagesWaiting
                0x00006c6e                uxQueueSpacesAvailable
                0x00006cb2                uxQueueMessagesWaitingFromISR
                0x00006ce8                vQueueDelete
                0x00006d1c                uxQueueGetQueueNumber
                0x00006d34                vQueueSetQueueNumber
                0x00006d50                ucQueueGetQueueType
                0x00006fa6                xQueueIsQueueEmptyFromISR
                0x00007018                xQueueIsQueueFullFromISR
                0x0000705e                vQueueWaitForMessageRestricted
                0x000070c6                xQueueCreateSet
                0x000070e4                xQueueAddToSet
                0x00007126                xQueueRemoveFromSet
                0x0000716e                xQueueSelectFromSet
                0x00007194                xQueueSelectFromSetFromISR
 .text          0x00007268      0xbc0 build/Default/debug/thirdparty/RTOS/freertos/FreeRTOSV10.0.0/Source/stream_buffer.o
                0x00007268                xStreamBufferGenericCreate
                0x000072ea                vStreamBufferDelete
                0x00007336                xStreamBufferReset
                0x000073b8                xStreamBufferSetTriggerLevel
                0x00007412                xStreamBufferSpacesAvailable
                0x00007476                xStreamBufferBytesAvailable
                0x000074ae                xStreamBufferSend
                0x000075f6                xStreamBufferSendFromISR
                0x0000774c                xStreamBufferReceive
                0x00007872                xStreamBufferReceiveFromISR
                0x000079aa                xStreamBufferIsEmpty
                0x000079f8                xStreamBufferIsFull
                0x00007a56                xStreamBufferSendCompletedFromISR
                0x00007ad8                xStreamBufferReceiveCompletedFromISR
                0x00007dd6                uxStreamBufferGetStreamBufferNumber
                0x00007dee                vStreamBufferSetStreamBufferNumber
                0x00007e0a                ucStreamBufferGetStreamBufferType
 .text          0x00007e28      0x7ec build/Default/debug/thirdparty/RTOS/freertos/FreeRTOSV10.0.0/Source/timers.o
                0x00007e28                xTimerCreateTimerTask
                0x00007e88                xTimerCreate
                0x00007f24                xTimerGenericCommand
                0x00007fbc                xTimerGetTimerDaemonTaskHandle
                0x00007ff4                xTimerGetPeriod
                0x0000802a                xTimerGetExpiryTime
                0x00008064                pcTimerGetName
                0x0000851c                xTimerIsTimerActive
                0x00008564                pvTimerGetTimerID
                0x000085a2                vTimerSetTimerID
                0x000085e0                uxTimerGetTimerNumber
                0x000085f8                vTimerSetTimerNumber
 .text          0x00008614      0x66c build/Default/debug/driver_init.o
                0x00008922                EDBG_COM_PORT_init
                0x00008944                EDBG_COM_CLOCK_init
                0x00008970                EDBG_COM_init
                0x000089d0                USART_0_PORT_init
                0x000089f0                USART_0_CLOCK_init
                0x00008a1c                USART_0_init
                0x00008a88                USART_1_PORT_init
                0x00008aa4                USART_1_CLOCK_init
                0x00008ad0                USART_1_init
                0x00008b30                USART_2_PORT_init
                0x00008b50                USART_2_CLOCK_init
                0x00008b7c                USART_2_init
                0x00008bdc                PWM_0_PORT_init
                0x00008c38                PWM_0_CLOCK_init
                0x00008c58                system_init
 .text          0x00008c80      0x5fc build/Default/debug/thirdparty/RTOS/freertos/FreeRTOSV10.0.0/Source/event_groups.o
                0x00008c80                xEventGroupCreate
                0x00008cae                xEventGroupSync
                0x00008e04                xEventGroupWaitBits
                0x00008f98                xEventGroupClearBits
                0x00009004                xEventGroupGetBitsFromISR
                0x0000904a                xEventGroupSetBits
                0x0000915c                vEventGroupDelete
                0x000091bc                vEventGroupSetBitsCallback
                0x000091d6                vEventGroupClearBitsCallback
                0x00009234                uxEventGroupGetNumber
                0x00009260                vEventGroupSetNumber
 .text          0x0000927c      0x584 build/Default/debug/hpl/cmcc/hpl_cmcc.o
                0x00009482                _cmcc_init
                0x000094d4                _cmcc_configure
                0x0000952e                _cmcc_enable_data_cache
                0x0000957e                _cmcc_enable_inst_cache
                0x000095ce                _cmcc_enable_clock_gating
                0x0000960c                _cmcc_configure_cache_size
                0x00009656                _cmcc_lock_way
                0x00009698                _cmcc_unlock_way
                0x000096dc                _cmcc_invalidate_by_line
                0x0000973e                _cmcc_invalidate_all
                0x00009776                _cmcc_configure_monitor
                0x0000979a                _cmcc_enable_monitor
                0x000097b4                _cmcc_disable_monitor
                0x000097ce                _cmcc_reset_monitor
                0x000097e8                _cmcc_get_monitor_event_count
 .text          0x00009800      0x528 build/Default/debug/WiFi.o
                0x00009800                wifi_thread
                0x00009908                parseUDPHandshake
                0x00009920                controllerHandshake
                0x00009980                testIP
                0x000099c8                testcipmux
                0x00009a10                enableUDP
                0x00009a5c                wifiModeSoftAP
                0x00009aa4                configureAP
                0x00009aec                espReset
                0x00009b40                echoOff
                0x00009b88                sendATCommand
                0x00009c78                transmitPacket
 .text          0x00009d28      0x500 build/Default/debug/hpl/core/hpl_core_m4.o
                0x00009e48                _reset_mcu
                0x00009e50                _go_to_sleep
                0x00009e64                _irq_get_current
                0x00009e84                _irq_disable
                0x00009ea0                _irq_set
                0x00009ebc                _irq_clear
                0x00009ed8                _irq_enable
                0x00009ef4                _irq_register
                0x00009f1c                Default_Handler
                0x0000a068                _get_cycles_for_us
                0x0000a1d0                _get_cycles_for_ms
                0x0000a1f4                _delay_init
                0x0000a208                _delay_cycles

.text%35        0x0000a230      0x7a8
 .text          0x0000a230      0x4a0 build/Default/debug/thirdparty/RTOS/freertos/FreeRTOSV10.0.0/Source/portable/GCC/ARM_CM4F/port.o
                0x0000a230                pxPortInitialiseStack
                0x0000a2ec                SVCall_Handler
                0x0000a33a                xPortStartScheduler
                0x0000a478                vPortEndScheduler
                0x0000a4ac                vPortEnterCritical
                0x0000a508                vPortExitCritical
                0x0000a558                PendSV_Handler
                0x0000a5c6                SysTick_Handler
                0x0000a608                vPortSetupTimerInterrupt
                0x0000a64c                vPortValidateInterruptPriority
 .text          0x0000a6d0      0x308 build/Default/debug/hal/src/hal_usart_sync.o
                0x0000a6d0                usart_sync_init
                0x0000a714                usart_sync_deinit
                0x0000a73c                usart_sync_enable
                0x0000a758                usart_sync_disable
                0x0000a774                usart_sync_get_io_descriptor
                0x0000a792                usart_sync_set_flow_control
                0x0000a7b2                usart_sync_set_baud_rate
                0x0000a7d2                usart_sync_set_data_order
                0x0000a7f6                usart_sync_set_mode
                0x0000a81a                usart_sync_set_parity
                0x0000a83e                usart_sync_set_stopbits
                0x0000a862                usart_sync_set_character_size
                0x0000a886                usart_sync_flow_control_status
                0x0000a8aa                usart_sync_is_tx_empty
                0x0000a8c6                usart_sync_is_rx_not_empty
                0x0000a8e2                usart_sync_get_version

.text.__printf_core%37
                0x0000a9d8      0x2f4
 .text.__printf_core
                0x0000a9d8      0x2f4 c:/program files/microchip/xc32/v4.21/bin/bin/../../lib/gcc/pic32c/8.3.1/../../../../pic32c/lib/thumb/v7e-m+fp/hard\libg-musl.a(__printf_core.o)
                0x0000a9d8                __printf_core

.text%38        0x0000accc      0x774
 .text          0x0000accc      0x2bc c:/program files/microchip/xc32/v4.21/bin/bin/../../lib/gcc/pic32c/8.3.1/thumb/v7e-m+fp/hard\libgcc.a(_udivmoddi4.o)
                0x0000accc                __udivmoddi4
 .text          0x0000af88      0x278 build/Default/debug/hpl/ramecc/hpl_ramecc.o
                0x0000b102                _ramecc_init
                0x0000b134                _ramecc_register_callback
                0x0000b194                RAMECC_Handler
 .text          0x0000b200      0x240 build/Default/debug/hal/utils/src/utils_event.o
                0x0000b23a                event_subscribe
                0x0000b2e0                event_unsubscribe
                0x0000b3c8                event_post

.text.__aeabi_dadd%41
                0x0000b440      0x23e
 .text.__aeabi_dadd
                0x0000b440      0x23e c:/program files/microchip/xc32/v4.21/bin/bin/../../lib/gcc/pic32c/8.3.1/../../../../pic32c/lib/thumb/v7e-m+fp/hard\libm-emfloat.a(__aeabi_dadd.o)
                0x0000b440                __aeabi_dadd

.text.__aeabi_ddiv%42
                0x0000b67e      0x216
 .text.__aeabi_ddiv
                0x0000b67e      0x216 c:/program files/microchip/xc32/v4.21/bin/bin/../../lib/gcc/pic32c/8.3.1/../../../../pic32c/lib/thumb/v7e-m+fp/hard\libm-emfloat.a(__aeabi_ddiv.o)
                0x0000b67e                __aeabi_ddiv

.dinit%43       0x0000b894      0x1e0
 .dinit         0x0000b894      0x1e0 data_init

.text%44        0x0000ba74      0x43a
 .text          0x0000ba74      0x16c build/Default/debug/hal/src/hal_cache.o
                0x0000bb6e                cache_init
                0x0000bb7c                cache_enable
                0x0000bb94                cache_disable
                0x0000bbac                cache_configure
                0x0000bbc8                cache_invalidate_all
 .text          0x0000bbe0      0x168 build/Default/debug/thirdparty/RTOS/freertos/FreeRTOSV10.0.0/Source/list.o
                0x0000bbe0                vListInitialise
                0x0000bc20                vListInitialiseItem
                0x0000bc3a                vListInsertEnd
                0x0000bc82                vListInsert
                0x0000bcf4                uxListRemove
 .text          0x0000bd48      0x166 build/Default/debug/hal/utils/src/utils_list.o
                0x0000bd48                is_list_element
                0x0000bd80                list_insert_as_head
                0x0000bda4                list_insert_after
                0x0000bdc8                list_insert_at_end
                0x0000be12                list_remove_head
                0x0000be44                list_delete_element

.text%47        0x0000beb0      0x158
 .text          0x0000beb0      0x158 build/Default/debug/hpl/tcc/tcc_lite.o
                0x0000bfa6                PWM_0_init

.text.__aeabi_dmul%48
                0x0000c008      0x130
 .text.__aeabi_dmul
                0x0000c008      0x130 c:/program files/microchip/xc32/v4.21/bin/bin/../../lib/gcc/pic32c/8.3.1/../../../../pic32c/lib/thumb/v7e-m+fp/hard\libm-emfloat.a(__aeabi_dmul.o)
                0x0000c008                __aeabi_dmul

.text.__fmt_x%49
                0x0000c138      0x11e
 .text.__fmt_x  0x0000c138      0x11e c:/program files/microchip/xc32/v4.21/bin/bin/../../lib/gcc/pic32c/8.3.1/../../../../pic32c/lib/thumb/v7e-m+fp/hard\libg-musl.a(__fmt_x.o)
                0x0000c138                __fmt_x_needed
                0x0000c138                __fmt_x

.text%50        0x0000c258      0x498
 .text          0x0000c258      0x100 build/Default/debug/hal/utils/src/utils_syscalls.o
                0x0000c258                _sbrk
                0x0000c298                link
                0x0000c2b2                _close
                0x0000c2ca                _fstat
                0x0000c2ea                _isatty
                0x0000c300                _lseek
                0x0000c31a                _exit
                0x0000c330                _kill
                0x0000c346                _getpid
 .text          0x0000c358       0xfc build/Default/debug/thirdparty/RTOS/freertos/FreeRTOSV10.0.0/rtos_port.o
                0x0000c37c                sem_init
                0x0000c3ac                sem_up
                0x0000c3fe                sem_down
                0x0000c42a                sem_deinit
 .text          0x0000c454       0xf0 build/Default/debug/thirdparty/RTOS/freertos/FreeRTOSV10.0.0/Source/portable/MemMang/heap_1.o
                0x0000c454                pvPortMalloc
                0x0000c4e0                vPortFree
                0x0000c50e                vPortInitialiseBlocks
                0x0000c528                xPortGetFreeHeapSize
 .text          0x0000c544       0xdc build/Default/debug/interrupts.o
                0x0000c560                SERCOM0_0_Handler
                0x0000c5a0                SERCOM0_1_Handler
                0x0000c5a6                SERCOM0_2_Handler
                0x0000c5f0                SERCOM0_3_Handler
                0x0000c5f6                SERCOM4_0_Handler
                0x0000c5fc                SERCOM4_1_Handler
                0x0000c602                SERCOM4_2_Handler
                0x0000c608                SERCOM4_3_Handler
                0x0000c60e                HardFault_Handler
                0x0000c614                BusFault_Handler
                0x0000c61a                UsageFault_Handler
 .text          0x0000c620       0xd0 build/Default/debug/examples/driver_examples.o
                0x0000c620                USART_0_example
                0x0000c654                USART_1_example
                0x0000c688                EDBG_COM_example
                0x0000c6bc                USART_2_example

.rodata%55      0x0000c6f0       0xb8
 .rodata        0x0000c6f0       0xb8 build/Default/debug/WiFi.o

.text.__pop_int%56
                0x0000c7a8       0xac
 .text.__pop_int
                0x0000c7a8       0xac c:/program files/microchip/xc32/v4.21/bin/bin/../../lib/gcc/pic32c/8.3.1/../../../../pic32c/lib/thumb/v7e-m+fp/hard\libg-musl.a(__pop_int.o)
                0x0000c7a8                __pop_int_needed
                0x0000c7a8                __pop_int

.text.__fmt_d%57
                0x0000c854       0xa8
 .text.__fmt_d  0x0000c854       0xa8 c:/program files/microchip/xc32/v4.21/bin/bin/../../lib/gcc/pic32c/8.3.1/../../../../pic32c/lib/thumb/v7e-m+fp/hard\libg-musl.a(__fmt_d.o)
                0x0000c854                __fmt_d
                0x0000c854                __fmt_d_needed

.text%58        0x0000c8fc      0x270
 .text          0x0000c8fc       0xa4 build/Default/debug/hpl/oscctrl/hpl_oscctrl.o
                0x0000c94c                _oscctrl_init_sources
                0x0000c984                _oscctrl_init_referenced_generators
 .text          0x0000c9a0       0x9c build/Default/debug/hpl/osc32kctrl/hpl_osc32kctrl.o
                0x0000ca00                _osc32kctrl_init_sources
 .text          0x0000ca3c       0x98 build/Default/debug/hpl/gclk/hpl_gclk.o
                0x0000ca8c                _gclk_init_generators
                0x0000caa8                _gclk_init_generators_by_fref
 .text          0x0000cad4       0x98 build/Default/debug/hpl/pm/hpl_pm.o
                0x0000cb0c                _set_sleep_mode

.text.Reset_Handler%62
                0x0000cb6c       0x90
 .text.Reset_Handler
                0x0000cb6c       0x90 C:\Users\Loyola\AppData\Local\Temp\cc65FL0A.o
                0x0000cb6c                Reset_Handler

.text%63        0x0000cbfc       0x8c
 .text          0x0000cbfc       0x8c build/Default/debug/hal/src/hal_delay.o
                0x0000cbfc                delay_init
                0x0000cc20                delay_us
                0x0000cc4c                delay_ms
                0x0000cc78                delay_get_version

.text.__pad%64  0x0000cc88       0x80
 .text.__pad    0x0000cc88       0x80 c:/program files/microchip/xc32/v4.21/bin/bin/../../lib/gcc/pic32c/8.3.1/../../../../pic32c/lib/thumb/v7e-m+fp/hard\libg-musl.a(__printf_core.o)
                0x0000cc88                __pad

.text.__pop_ptr%65
                0x0000cd08       0x7c
 .text.__pop_ptr
                0x0000cd08       0x7c c:/program files/microchip/xc32/v4.21/bin/bin/../../lib/gcc/pic32c/8.3.1/../../../../pic32c/lib/thumb/v7e-m+fp/hard\libg-musl.a(__pop_ptr.o)
                0x0000cd08                __pop_ptr
                0x0000cd08                __pop_ptr_needed

.text.__cvt_u%66
                0x0000cd84       0x78
 .text.__cvt_u  0x0000cd84       0x78 c:/program files/microchip/xc32/v4.21/bin/bin/../../lib/gcc/pic32c/8.3.1/../../../../pic32c/lib/thumb/v7e-m+fp/hard\libg-musl.a(__fmt_u.o)
                0x0000cd84                __cvt_u

.text.__fmt_o%67
                0x0000cdfc       0x72
 .text.__fmt_o  0x0000cdfc       0x72 c:/program files/microchip/xc32/v4.21/bin/bin/../../lib/gcc/pic32c/8.3.1/../../../../pic32c/lib/thumb/v7e-m+fp/hard\libg-musl.a(__fmt_o.o)
                0x0000cdfc                __fmt_o
                0x0000cdfc                __fmt_o_needed

.text%68        0x0000ce70       0x60
 .text          0x0000ce70       0x60 build/Default/debug/hpl/core/hpl_init.o
                0x0000cea2                _init_chip

.text.__pic32c_data_initialization_impl%69
                0x0000ced0       0x60
 .text.__pic32c_data_initialization_impl
                0x0000ced0       0x60 c:/program files/microchip/xc32/v4.21/bin/bin/../../lib/gcc/pic32c/8.3.1/../../../../pic32c/lib/thumb/v7e-m+fp/hard\libpic32c.a(data_init_0_1.o)
                0x0000ced0                __copy_needed
                0x0000ced0                __pic32c_data_initialization_impl

.text.__libc_start_init%70
                0x0000cf30       0x5c
 .text.__libc_start_init
                0x0000cf30       0x5c c:/program files/microchip/xc32/v4.21/bin/bin/../../lib/gcc/pic32c/8.3.1/../../../../pic32c/lib/thumb/v7e-m+fp/hard\libg-musl.a(__libc_start_main.o)
                0x0000cf30                __libc_init_array

.text%71        0x0000cf8c       0xb2
 .text          0x0000cf8c       0x5a build/Default/debug/hal/src/hal_atomic.o
                0x0000cf8c                atomic_enter_critical
                0x0000cfb2                atomic_leave_critical
                0x0000cfd6                atomic_get_version
 .text          0x0000cfe6       0x58 build/Default/debug/hal/src/hal_io.o
                0x0000cfe6                io_get_version
                0x0000cff6                io_write
                0x0000d01a                io_read

.text.__fmt_s%73
                0x0000d040       0x58
 .text.__fmt_s  0x0000d040       0x58 c:/program files/microchip/xc32/v4.21/bin/bin/../../lib/gcc/pic32c/8.3.1/../../../../pic32c/lib/thumb/v7e-m+fp/hard\libg-musl.a(__fmt_s.o)
                0x0000d040                __fmt_s
                0x0000d040                __fmt_0_needed
                0x0000d040                __fmt_s_needed

.text.__fmt_u%74
                0x0000d098       0x56
 .text.__fmt_u  0x0000d098       0x56 c:/program files/microchip/xc32/v4.21/bin/bin/../../lib/gcc/pic32c/8.3.1/../../../../pic32c/lib/thumb/v7e-m+fp/hard\libg-musl.a(__fmt_u.o)
                0x0000d098                __fmt_u_needed
                0x0000d098                __fmt_u

.text.__vsnprintf%75
                0x0000d0f0       0x50
 .text.__vsnprintf
                0x0000d0f0       0x50 c:/program files/microchip/xc32/v4.21/bin/bin/../../lib/gcc/pic32c/8.3.1/../../../../pic32c/lib/thumb/v7e-m+fp/hard\libg-musl.a(__int_vsnprintf.o)
                0x0000d0f0                __vsnprintf

.text%76        0x0000d140       0x94
 .text          0x0000d140       0x4c build/Default/debug/main.o
                0x0000d140                main
 .text          0x0000d18c       0x48 build/Default/debug/rtos_start.o
                0x0000d18c                RTOS_start

.text.atoi%78   0x0000d1d4       0x46
 .text.atoi     0x0000d1d4       0x46 c:/program files/microchip/xc32/v4.21/bin/bin/../../lib/gcc/pic32c/8.3.1/../../../../pic32c/lib/thumb/v7e-m+fp/hard\libg-musl.a(atoi.o)
                0x0000d1d4                atoi

.text%79        0x0000d21c       0xb8
 .text          0x0000d21c       0x40 c:/program files/microchip/xc32/v4.21/bin/bin/../../lib/gcc/pic32c/8.3.1/thumb/v7e-m+fp/hard/crtbegin.o
 .text          0x0000d25c       0x3c build/Default/debug/hal/src/hal_sleep.o
                0x0000d25c                sleep
                0x0000d288                sleep_get_version
 .text          0x0000d298       0x3c build/Default/debug/hpl/mclk/hpl_mclk.o
                0x0000d2b6                _mclk_init

.text.write%82  0x0000d2d4       0x3c
 .text.write    0x0000d2d4       0x3c c:/program files/microchip/xc32/v4.21/bin/bin/../../lib/gcc/pic32c/8.3.1/../../../../pic32c/lib/thumb/v7e-m+fp/hard\libpic32c.a(write.o)
                0x0000d2d4                write

.text.__out%83  0x0000d310       0x3a
 .text.__out    0x0000d310       0x3a c:/program files/microchip/xc32/v4.21/bin/bin/../../lib/gcc/pic32c/8.3.1/../../../../pic32c/lib/thumb/v7e-m+fp/hard\libg-musl.a(__out.o)
                0x0000d310                __out
                0x0000d310                __out_needed

.text%84        0x0000d34c       0x38
 .text          0x0000d34c       0x38 build/Default/debug/gcc/system_same54.o
                0x0000d34c                SystemInit
                0x0000d368                SystemCoreClockUpdate

.text.__fmt_state%85
                0x0000d384       0x38
 .text.__fmt_state
                0x0000d384       0x38 c:/program files/microchip/xc32/v4.21/bin/bin/../../lib/gcc/pic32c/8.3.1/../../../../pic32c/lib/thumb/v7e-m+fp/hard\libg-musl.a(__printf_core.o)
                0x0000d384                __fmt_state

.rodata%86      0x0000d3bc       0x34
 .rodata        0x0000d3bc       0x34 build/Default/debug/hpl/sercom/hpl_sercom.o

.text%87        0x0000d3f0       0x30
 .text          0x0000d3f0       0x30 c:/program files/microchip/xc32/v4.21/bin/bin/../../lib/gcc/pic32c/8.3.1/thumb/v7e-m+fp/hard\libgcc.a(_aeabi_uldivmod.o)
                0x0000d3f0                __aeabi_uldivmod

.text.strstr%88
                0x0000d420       0x2a
 .text.strstr   0x0000d420       0x2a c:/program files/microchip/xc32/v4.21/bin/bin/../../lib/gcc/pic32c/8.3.1/../../../../pic32c/lib/thumb/v7e-m+fp/hard\libg-musl.a(strstr.o)
                0x0000d420                strstr

.text.__pop_float%89
                0x0000d44a       0x2a
 .text.__pop_float
                0x0000d44a       0x2a c:/program files/microchip/xc32/v4.21/bin/bin/../../lib/gcc/pic32c/8.3.1/../../../../pic32c/lib/thumb/v7e-m+fp/hard\libg-musl.a(__pop_float.o)
                0x0000d44a                __pop_float_needed
                0x0000d44a                __pop_float

.text%90        0x0000d474       0x28
 .text          0x0000d474       0x28 build/Default/debug/hal/utils/src/utils_assert.o
                0x0000d474                assert

.text.__string_out%91
                0x0000d49c       0x26
 .text.__string_out
                0x0000d49c       0x26 c:/program files/microchip/xc32/v4.21/bin/bin/../../lib/gcc/pic32c/8.3.1/../../../../pic32c/lib/thumb/v7e-m+fp/hard\libg-musl.a(__printf_core.o)

.text.__aeabi_d2uiz%92
                0x0000d4c2       0x24
 .text.__aeabi_d2uiz
                0x0000d4c2       0x24 c:/program files/microchip/xc32/v4.21/bin/bin/../../lib/gcc/pic32c/8.3.1/../../../../pic32c/lib/thumb/v7e-m+fp/hard\libm-emfloat.a(__aeabi_d2uiz.o)
                0x0000d4c2                __aeabi_d2uiz

.text.__wrap_printf%93
                0x0000d4e8       0x24
 .text.__wrap_printf
                0x0000d4e8       0x24 c:/program files/microchip/xc32/v4.21/bin/bin/../../lib/gcc/pic32c/8.3.1/../../../../pic32c/lib/thumb/v7e-m+fp/hard\libg-musl.a(__sio_printf_doux.o)
                0x0000d4e8                __printf_di
                0x0000d4e8                _dprintf_cdnopuxX
                0x0000d4e8                _printf_cdnopuxX

.text.__aeabi_i2d%94
                0x0000d50c       0x22
 .text.__aeabi_i2d
                0x0000d50c       0x22 c:/program files/microchip/xc32/v4.21/bin/bin/../../lib/gcc/pic32c/8.3.1/../../../../pic32c/lib/thumb/v7e-m+fp/hard\libm-emfloat.a(__aeabi_i2d.o)
                0x0000d50c                __aeabi_i2d

.text.__sio_printf_doux%95
                0x0000d52e       0x22
 .text.__sio_printf_doux
                0x0000d52e       0x22 c:/program files/microchip/xc32/v4.21/bin/bin/../../lib/gcc/pic32c/8.3.1/../../../../pic32c/lib/thumb/v7e-m+fp/hard\libg-musl.a(__sio_printf_doux.o)
                0x0000d52e                __sio_printf_doux

.text.__sio_sprintf_doux%96
                0x0000d550       0x22
 .text.__sio_sprintf_doux
                0x0000d550       0x22 c:/program files/microchip/xc32/v4.21/bin/bin/../../lib/gcc/pic32c/8.3.1/../../../../pic32c/lib/thumb/v7e-m+fp/hard\libg-musl.a(__sio_sprintf_doux.o)
                0x0000d550                __sio_sprintf_doux

.rodata%97      0x0000d574       0x1c
 .rodata        0x0000d574       0x1c build/Default/debug/hal/utils/src/utils_syscalls.o

.text.__aeabi_ui2d%98
                0x0000d590       0x1c
 .text.__aeabi_ui2d
                0x0000d590       0x1c c:/program files/microchip/xc32/v4.21/bin/bin/../../lib/gcc/pic32c/8.3.1/../../../../pic32c/lib/thumb/v7e-m+fp/hard\libm-emfloat.a(__aeabi_ui2d.o)
                0x0000d590                __aeabi_ui2d

.rodata%99      0x0000d5ac       0x1c
 .rodata        0x0000d5ac       0x1c c:/program files/microchip/xc32/v4.21/bin/bin/../../lib/gcc/pic32c/8.3.1/../../../../pic32c/lib/thumb/v7e-m+fp/hard\libg-musl.a(__printf_core.o)

.text.__vfprintf%100
                0x0000d5c8       0x1c
 .text.__vfprintf
                0x0000d5c8       0x1c c:/program files/microchip/xc32/v4.21/bin/bin/../../lib/gcc/pic32c/8.3.1/../../../../pic32c/lib/thumb/v7e-m+fp/hard\libg-musl.a(__int_vfprintf.o)
                0x0000d5c8                __vfprintf

.text.__wrap_sprintf%101
                0x0000d5e4       0x1a
 .text.__wrap_sprintf
                0x0000d5e4       0x1a c:/program files/microchip/xc32/v4.21/bin/bin/../../lib/gcc/pic32c/8.3.1/../../../../pic32c/lib/thumb/v7e-m+fp/hard\libg-musl.a(__sio_sprintf_doux.o)
                0x0000d5e4                _sprintf_cdnopuxX
                0x0000d5e4                __sprintf_uc
                0x0000d5e4                _dsprintf_cdnopuxX

.rodata%102     0x0000d600       0x18
 .rodata        0x0000d600       0x18 build/Default/debug/thirdparty/RTOS/freertos/FreeRTOSV10.0.0/Source/tasks.o

.text.__init_stdout%103
                0x0000d618       0x14
 .text.__init_stdout
                0x0000d618       0x14 c:/program files/microchip/xc32/v4.21/bin/bin/../../lib/gcc/pic32c/8.3.1/../../../../pic32c/lib/thumb/v7e-m+fp/hard\libg-musl.a(stdout.o)
                0x0000d618                __init_stdout

.text.memcpy%104
                0x0000d62c       0x12
 .text.memcpy   0x0000d62c       0x12 c:/program files/microchip/xc32/v4.21/bin/bin/../../lib/gcc/pic32c/8.3.1/../../../../pic32c/lib/thumb/v7e-m+fp/hard\libg-musl.a(memcpy.o)
                0x0000d62c                memcpy

.text.stpcpy%105
                0x0000d63e       0x12
 .text.stpcpy   0x0000d63e       0x12 c:/program files/microchip/xc32/v4.21/bin/bin/../../lib/gcc/pic32c/8.3.1/../../../../pic32c/lib/thumb/v7e-m+fp/hard\libg-musl.a(stpcpy.o)
                0x0000d63e                __stpcpy
                0x0000d63e                stpcpy

.rodata%106     0x0000d650       0x10
 .rodata        0x0000d650       0x10 build/Default/debug/examples/driver_examples.o

.text%107       0x0000d660       0x20
 .text          0x0000d660       0x10 build/Default/debug/hal/src/hal_gpio.o
                0x0000d660                gpio_get_version
 .text          0x0000d670       0x10 build/Default/debug/hal/src/hal_init.o
                0x0000d670                init_get_version

.text.memset%109
                0x0000d680       0x10
 .text.memset   0x0000d680       0x10 c:/program files/microchip/xc32/v4.21/bin/bin/../../lib/gcc/pic32c/8.3.1/../../../../pic32c/lib/thumb/v7e-m+fp/hard\libg-musl.a(memset.o)
                0x0000d680                memset

.text.strlen%110
                0x0000d690       0x10
 .text.strlen   0x0000d690       0x10 c:/program files/microchip/xc32/v4.21/bin/bin/../../lib/gcc/pic32c/8.3.1/../../../../pic32c/lib/thumb/v7e-m+fp/hard\libg-musl.a(strlen.o)
                0x0000d690                strlen

.text.__init_stdio%111
                0x0000d6a0       0x10
 .text.__init_stdio
                0x0000d6a0       0x10 c:/program files/microchip/xc32/v4.21/bin/bin/../../lib/gcc/pic32c/8.3.1/../../../../pic32c/lib/thumb/v7e-m+fp/hard\libg-musl.a(__init_stdio.o)
                0x0000d6a0                __init_stdio_needed
                0x0000d6a0                __init_stdio

.text%112       0x0000d6b0        0xe
 .text          0x0000d6b0        0xe build/Default/debug/atmel_start.o
                0x0000d6b0                atmel_start_init

.text.tolower%113
                0x0000d6be        0xe
 .text.tolower  0x0000d6be        0xe c:/program files/microchip/xc32/v4.21/bin/bin/../../lib/gcc/pic32c/8.3.1/../../../../pic32c/lib/thumb/v7e-m+fp/hard\libg-musl.a(tolower.o)
                0x0000d6be                tolower

.text.toupper%114
                0x0000d6cc        0xe
 .text.toupper  0x0000d6cc        0xe c:/program files/microchip/xc32/v4.21/bin/bin/../../lib/gcc/pic32c/8.3.1/../../../../pic32c/lib/thumb/v7e-m+fp/hard\libg-musl.a(toupper.o)
                0x0000d6cc                toupper

.text.strcpy%115
                0x0000d6da        0xc
 .text.strcpy   0x0000d6da        0xc c:/program files/microchip/xc32/v4.21/bin/bin/../../lib/gcc/pic32c/8.3.1/../../../../pic32c/lib/thumb/v7e-m+fp/hard\libg-musl.a(strcpy.o)
                0x0000d6da                strcpy

.text.__vsprintf%116
                0x0000d6e6        0xc
 .text.__vsprintf
                0x0000d6e6        0xc c:/program files/microchip/xc32/v4.21/bin/bin/../../lib/gcc/pic32c/8.3.1/../../../../pic32c/lib/thumb/v7e-m+fp/hard\libg-musl.a(__int_vsprintf.o)
                0x0000d6e6                __vsprintf

.rodata%117     0x0000a228        0x8
 .rodata        0x0000a228        0x8 build/Default/debug/thirdparty/RTOS/freertos/FreeRTOSV10.0.0/Source/timers.o

.rodata%118     0x0000d6f4        0x8
 .rodata        0x0000d6f4        0x8 build/Default/debug/rtos_start.o

.text.__aeabi_dsub%119
                0x0000d6fc        0x8
 .text.__aeabi_dsub
                0x0000d6fc        0x8 c:/program files/microchip/xc32/v4.21/bin/bin/../../lib/gcc/pic32c/8.3.1/../../../../pic32c/lib/thumb/v7e-m+fp/hard\libm-emfloat.a(__aeabi_dsub.o)
                0x0000d6fc                __aeabi_dsub

.text.__dummy%120
                0x0000d704        0x8
 .text.__dummy  0x0000d704        0x8 c:/program files/microchip/xc32/v4.21/bin/bin/../../lib/gcc/pic32c/8.3.1/../../../../pic32c/lib/thumb/v7e-m+fp/hard\libg-musl.a(stdout.o)
                0x0000d704                __get_stdout

.rodata%121     0x0000d70c        0x7
 .rodata        0x0000d70c        0x7 c:/program files/microchip/xc32/v4.21/bin/bin/../../lib/gcc/pic32c/8.3.1/../../../../pic32c/lib/thumb/v7e-m+fp/hard\libg-musl.a(__fmt_s.o)

.text.__fwrite_min%122
                0x0000d714        0x6
 .text.__fwrite_min
                0x0000d714        0x6 c:/program files/microchip/xc32/v4.21/bin/bin/../../lib/gcc/pic32c/8.3.1/../../../../pic32c/lib/thumb/v7e-m+fp/hard\libg-musl.a(__out.o)
                0x0000d714                __fwrite
                0x0000d714                __stdio_write_unbuffered
                0x0000d714                __stdio_write

.rodata%123     0x0000028c        0x4
 .rodata        0x0000028c        0x4 build/Default/debug/thirdparty/RTOS/freertos/FreeRTOSV10.0.0/Source/portable/GCC/ARM_CM4F/port.o

.text.__pic32c_data_initialization%124
                0x0000d71a        0x4
 .text.__pic32c_data_initialization
                0x0000d71a        0x4 c:/program files/microchip/xc32/v4.21/bin/bin/../../lib/gcc/pic32c/8.3.1/../../../../pic32c/lib/thumb/v7e-m+fp/hard\libpic32c.a(data_init_wrapper.o)
                0x0000d71a                __pic32c_data_initialization

.text.__dummy_fmt3%125
                0x0000d71e        0x4
 .text.__dummy_fmt3
                0x0000d71e        0x4 c:/program files/microchip/xc32/v4.21/bin/bin/../../lib/gcc/pic32c/8.3.1/../../../../pic32c/lib/thumb/v7e-m+fp/hard\libg-musl.a(__printf_core.o)

.text.__dummy_fmt4%126
                0x0000d722        0x4
 .text.__dummy_fmt4
                0x0000d722        0x4 c:/program files/microchip/xc32/v4.21/bin/bin/../../lib/gcc/pic32c/8.3.1/../../../../pic32c/lib/thumb/v7e-m+fp/hard\libg-musl.a(__printf_core.o)
                0x0000d722                __fmt_fp
                0x0000d722                __fmt_a

.text.__dummy_fmts%127
                0x0000d726        0x4
 .text.__dummy_fmts
                0x0000d726        0x4 c:/program files/microchip/xc32/v4.21/bin/bin/../../lib/gcc/pic32c/8.3.1/../../../../pic32c/lib/thumb/v7e-m+fp/hard\libg-musl.a(__printf_core.o)

.text.__tolower_l%128
                0x0000d72a        0x4
 .text.__tolower_l
                0x0000d72a        0x4 c:/program files/microchip/xc32/v4.21/bin/bin/../../lib/gcc/pic32c/8.3.1/../../../../pic32c/lib/thumb/v7e-m+fp/hard\libg-musl.a(tolower.o)
                0x0000d72a                tolower_l
                0x0000d72a                __tolower_l

.text.__toupper_l%129
                0x0000d72e        0x4
 .text.__toupper_l
                0x0000d72e        0x4 c:/program files/microchip/xc32/v4.21/bin/bin/../../lib/gcc/pic32c/8.3.1/../../../../pic32c/lib/thumb/v7e-m+fp/hard\libg-musl.a(toupper.o)
                0x0000d72e                __toupper_l
                0x0000d72e                toupper_l

.text%130       0x0000d734        0x4
 .text          0x0000d734        0x4 c:/program files/microchip/xc32/v4.21/bin/bin/../../lib/gcc/pic32c/8.3.1/thumb/v7e-m+fp/hard\libgcc.a(_dvmd_tls.o)
                0x0000d734                __aeabi_idiv0
                0x0000d734                __aeabi_ldiv0

.text.Dummy_Handler%131
                0x0000beae        0x2
 .text.Dummy_Handler
                0x0000beae        0x2 C:\Users\Loyola\AppData\Local\Temp\cc65FL0A.o
                0x0000beae                EIC_EXTINT_9_Handler
                0x0000beae                TCC0_MC5_Handler
                0x0000beae                USB_SOF_HSOF_Handler
                0x0000beae                TCC4_OTHER_Handler
                0x0000beae                TCC2_MC2_Handler
                0x0000beae                EVSYS_0_Handler
                0x0000beae                TRNG_Handler
                0x0000beae                TC2_Handler
                0x0000beae                USB_TRCPT0_Handler
                0x0000beae                DAC_OTHER_Handler
                0x0000beae                AC_Handler
                0x0000beae                DAC_EMPTY_0_Handler
                0x0000beae                DMAC_OTHER_Handler
                0x0000beae                EIC_EXTINT_5_Handler
                0x0000beae                SERCOM3_1_Handler
                0x0000beae                SERCOM4_OTHER_Handler
                0x0000beae                SERCOM3_2_Handler
                0x0000beae                EIC_EXTINT_6_Handler
                0x0000beae                TC7_Handler
                0x0000beae                TCC4_MC0_Handler
                0x0000beae                EVSYS_3_Handler
                0x0000beae                QSPI_Handler
                0x0000beae                NonMaskableInt_Handler
                0x0000beae                TCC2_MC0_Handler
                0x0000beae                PDEC_OTHER_Handler
                0x0000beae                TCC3_MC0_Handler
                0x0000beae                PDEC_MC1_Handler
                0x0000beae                TCC2_MC1_Handler
                0x0000beae                OSCCTRL_XOSC1_Handler
                0x0000beae                PDEC_MC0_Handler
                0x0000beae                EIC_EXTINT_4_Handler
                0x0000beae                EIC_EXTINT_7_Handler
                0x0000beae                SERCOM0_OTHER_Handler
                0x0000beae                EVSYS_OTHER_Handler
                0x0000beae                RTC_Handler
                0x0000beae                TCC1_MC0_Handler
                0x0000beae                SERCOM1_OTHER_Handler
                0x0000beae                TCC2_OTHER_Handler
                0x0000beae                EIC_EXTINT_11_Handler
                0x0000beae                SUPC_BODDET_Handler
                0x0000beae                Reserved43_Handler
                0x0000beae                EIC_EXTINT_14_Handler
                0x0000beae                OSC32KCTRL_Handler
                0x0000beae                SERCOM6_2_Handler
                0x0000beae                EVSYS_1_Handler
                0x0000beae                TC6_Handler
                0x0000beae                TCC4_MC1_Handler
                0x0000beae                DMAC_0_Handler
                0x0000beae                SUPC_OTHER_Handler
                0x0000beae                WDT_Handler
                0x0000beae                CAN0_Handler
                0x0000beae                EIC_EXTINT_15_Handler
                0x0000beae                SERCOM6_0_Handler
                0x0000beae                EIC_EXTINT_1_Handler
                0x0000beae                TCC3_MC1_Handler
                0x0000beae                SERCOM5_0_Handler
                0x0000beae                TC4_Handler
                0x0000beae                TC1_Handler
                0x0000beae                TCC1_MC1_Handler
                0x0000beae                EIC_EXTINT_0_Handler
                0x0000beae                TCC1_OTHER_Handler
                0x0000beae                PAC_Handler
                0x0000beae                TC3_Handler
                0x0000beae                Dummy_Handler
                0x0000beae                DAC_RESRDY_0_Handler
                0x0000beae                SERCOM5_1_Handler
                0x0000beae                DMAC_2_Handler
                0x0000beae                TCC0_MC4_Handler
                0x0000beae                USB_TRCPT1_Handler
                0x0000beae                TCC0_MC3_Handler
                0x0000beae                EIC_EXTINT_12_Handler
                0x0000beae                OSCCTRL_DPLL0_Handler
                0x0000beae                SERCOM6_OTHER_Handler
                0x0000beae                SERCOM7_1_Handler
                0x0000beae                SERCOM5_OTHER_Handler
                0x0000beae                PM_Handler
                0x0000beae                OSCCTRL_DFLL_Handler
                0x0000beae                SERCOM7_0_Handler
                0x0000beae                DAC_RESRDY_1_Handler
                0x0000beae                DMAC_1_Handler
                0x0000beae                USB_OTHER_Handler
                0x0000beae                GMAC_Handler
                0x0000beae                SDHC1_Handler
                0x0000beae                CAN1_Handler
                0x0000beae                SERCOM7_2_Handler
                0x0000beae                Reserved42_Handler
                0x0000beae                TCC0_OTHER_Handler
                0x0000beae                EIC_EXTINT_10_Handler
                0x0000beae                TCC1_MC3_Handler
                0x0000beae                OSCCTRL_XOSC0_Handler
                0x0000beae                SERCOM6_1_Handler
                0x0000beae                Reserved44_Handler
                0x0000beae                TCC0_MC0_Handler
                0x0000beae                EIC_EXTINT_2_Handler
                0x0000beae                SDHC0_Handler
                0x0000beae                SERCOM1_1_Handler
                0x0000beae                I2S_Handler
                0x0000beae                PCC_Handler
                0x0000beae                TCC3_OTHER_Handler
                0x0000beae                EIC_EXTINT_13_Handler
                0x0000beae                SERCOM1_0_Handler
                0x0000beae                PUKCC_Handler
                0x0000beae                SERCOM2_1_Handler
                0x0000beae                SERCOM1_2_Handler
                0x0000beae                SERCOM3_0_Handler
                0x0000beae                TCC1_MC2_Handler
                0x0000beae                ADC1_RESRDY_Handler
                0x0000beae                NVMCTRL_1_Handler
                0x0000beae                SERCOM5_2_Handler
                0x0000beae                SERCOM2_2_Handler
                0x0000beae                DAC_EMPTY_1_Handler
                0x0000beae                ADC1_OTHER_Handler
                0x0000beae                EIC_EXTINT_3_Handler
                0x0000beae                OSCCTRL_DPLL1_Handler
                0x0000beae                SERCOM3_OTHER_Handler
                0x0000beae                EIC_EXTINT_8_Handler
                0x0000beae                NVMCTRL_0_Handler
                0x0000beae                ADC0_RESRDY_Handler
                0x0000beae                ADC0_OTHER_Handler
                0x0000beae                SERCOM7_OTHER_Handler
                0x0000beae                MCLK_Handler
                0x0000beae                EVSYS_2_Handler
                0x0000beae                SERCOM2_OTHER_Handler
                0x0000beae                FREQM_Handler
                0x0000beae                TC0_Handler
                0x0000beae                MemoryManagement_Handler
                0x0000beae                TCC0_MC1_Handler
                0x0000beae                DMAC_3_Handler
                0x0000beae                DebugMonitor_Handler
                0x0000beae                TC5_Handler
                0x0000beae                SERCOM2_0_Handler
                0x0000beae                ICM_Handler
                0x0000beae                AES_Handler
                0x0000beae                TCC0_MC2_Handler

.text.__dummy%132
                0x0000c256        0x2
 .text.__dummy  0x0000c256        0x2 c:/program files/microchip/xc32/v4.21/bin/bin/../../lib/gcc/pic32c/8.3.1/../../../../pic32c/lib/thumb/v7e-m+fp/hard\libg-musl.a(__libc_start_main.o)
                0x0000c256                __init_host

.text.__dummy%133
                0x0000ce6e        0x2
 .text.__dummy  0x0000ce6e        0x2 c:/program files/microchip/xc32/v4.21/bin/bin/../../lib/gcc/pic32c/8.3.1/../../../../pic32c/lib/thumb/v7e-m+fp/hard\libg-musl.a(__init_stdio.o)
                0x0000ce6e                __init_stdin
                0x0000ce6e                __init_stderr

.text._mon_putc%134
                0x0000d03e        0x2
 .text._mon_putc
                0x0000d03e        0x2 c:/program files/microchip/xc32/v4.21/bin/bin/../../lib/gcc/pic32c/8.3.1/../../../../pic32c/lib/thumb/v7e-m+fp/hard\libpic32c.a(_mon_putc.o)
                0x0000d03e                _mon_putc

.text%z151      0x00000000        0x0
 .text          0x00000000        0x0 c:/program files/microchip/xc32/v4.21/bin/bin/../../lib/gcc/pic32c/8.3.1/thumb/v7e-m+fp/hard/crtn.o

.text%z152      0x00000000        0x0
 .text          0x00000000        0x0 c:/program files/microchip/xc32/v4.21/bin/bin/../../lib/gcc/pic32c/8.3.1/thumb/v7e-m+fp/hard/crtend.o

.text%z153      0x00000000        0x0
 .text          0x00000000        0x0 c:/program files/microchip/xc32/v4.21/bin/bin/../../lib/gcc/pic32c/8.3.1/../../../../pic32c/lib/thumb/v7e-m+fp/hard\libpic32c.a(_mon_putc.o)

.text%z154      0x00000000        0x0
 .text          0x00000000        0x0 c:/program files/microchip/xc32/v4.21/bin/bin/../../lib/gcc/pic32c/8.3.1/../../../../pic32c/lib/thumb/v7e-m+fp/hard\libpic32c.a(write.o)

.text%z155      0x00000000        0x0
 .text          0x00000000        0x0 c:/program files/microchip/xc32/v4.21/bin/bin/../../lib/gcc/pic32c/8.3.1/../../../../pic32c/lib/thumb/v7e-m+fp/hard\libg-musl.a(__out.o)

.text%z156      0x00000000        0x0
 .text          0x00000000        0x0 c:/program files/microchip/xc32/v4.21/bin/bin/../../lib/gcc/pic32c/8.3.1/../../../../pic32c/lib/thumb/v7e-m+fp/hard\libg-musl.a(__io_file_needed.o)

.text%z157      0x00000000        0x0
 .text          0x00000000        0x0 c:/program files/microchip/xc32/v4.21/bin/bin/../../lib/gcc/pic32c/8.3.1/../../../../pic32c/lib/thumb/v7e-m+fp/hard\libg-musl.a(__init_stdio.o)

.text%z158      0x00000000        0x0
 .text          0x00000000        0x0 c:/program files/microchip/xc32/v4.21/bin/bin/../../lib/gcc/pic32c/8.3.1/../../../../pic32c/lib/thumb/v7e-m+fp/hard\libg-musl.a(__int_vsnprintf.o)

.text%z159      0x00000000        0x0
 .text          0x00000000        0x0 c:/program files/microchip/xc32/v4.21/bin/bin/../../lib/gcc/pic32c/8.3.1/../../../../pic32c/lib/thumb/v7e-m+fp/hard\libg-musl.a(stpcpy.o)

.text%z160      0x00000000        0x0
 .text          0x00000000        0x0 c:/program files/microchip/xc32/v4.21/bin/bin/../../lib/gcc/pic32c/8.3.1/../../../../pic32c/lib/thumb/v7e-m+fp/hard\libg-musl.a(__pop_float.o)

.text%z161      0x00000000        0x0
 .text          0x00000000        0x0 c:/program files/microchip/xc32/v4.21/bin/bin/../../lib/gcc/pic32c/8.3.1/../../../../pic32c/lib/thumb/v7e-m+fp/hard\libg-musl.a(__io_init_needed.o)

.text%z162      0x00000000        0x0
 .text          0x00000000        0x0 c:/program files/microchip/xc32/v4.21/bin/bin/../../lib/gcc/pic32c/8.3.1/../../../../pic32c/lib/thumb/v7e-m+fp/hard\libg-musl.a(__int_vsprintf.o)

.text%z163      0x00000000        0x0
 .text          0x00000000        0x0 c:/program files/microchip/xc32/v4.21/bin/bin/../../lib/gcc/pic32c/8.3.1/../../../../pic32c/lib/thumb/v7e-m+fp/hard\libg-musl.a(__int_vfprintf.o)

.text%z164      0x00000000        0x0
 .text          0x00000000        0x0 c:/program files/microchip/xc32/v4.21/bin/bin/../../lib/gcc/pic32c/8.3.1/../../../../pic32c/lib/thumb/v7e-m+fp/hard\libg-musl.a(__errno_location.o)

.text%z165      0x00000000        0x0
 .text          0x00000000        0x0 c:/program files/microchip/xc32/v4.21/bin/bin/../../lib/gcc/pic32c/8.3.1/../../../../pic32c/lib/thumb/v7e-m+fp/hard\libg-musl.a(__environ.o)

.text%z166      0x00000000        0x0
 .text          0x00000000        0x0 c:/program files/microchip/xc32/v4.21/bin/bin/../../lib/gcc/pic32c/8.3.1/../../../../pic32c/lib/thumb/v7e-m+fp/hard\libg-musl.a(toupper.o)

.text%z167      0x00000000        0x0
 .text          0x00000000        0x0 c:/program files/microchip/xc32/v4.21/bin/bin/../../lib/gcc/pic32c/8.3.1/../../../../pic32c/lib/thumb/v7e-m+fp/hard\libg-musl.a(tolower.o)

.text%z168      0x00000000        0x0
 .text          0x00000000        0x0 c:/program files/microchip/xc32/v4.21/bin/bin/../../lib/gcc/pic32c/8.3.1/../../../../pic32c/lib/thumb/v7e-m+fp/hard\libg-musl.a(strcpy.o)

.text%z169      0x00000000        0x0
 .text          0x00000000        0x0 c:/program files/microchip/xc32/v4.21/bin/bin/../../lib/gcc/pic32c/8.3.1/../../../../pic32c/lib/thumb/v7e-m+fp/hard\libg-musl.a(strstr.o)

.text%z170      0x00000000        0x0
 .text          0x00000000        0x0 c:/program files/microchip/xc32/v4.21/bin/bin/../../lib/gcc/pic32c/8.3.1/../../../../pic32c/lib/thumb/v7e-m+fp/hard\libg-musl.a(strlen.o)

.text%z171      0x00000000        0x0
 .text          0x00000000        0x0 c:/program files/microchip/xc32/v4.21/bin/bin/../../lib/gcc/pic32c/8.3.1/../../../../pic32c/lib/thumb/v7e-m+fp/hard\libg-musl.a(memset.o)

.text%z172      0x00000000        0x0
 .text          0x00000000        0x0 c:/program files/microchip/xc32/v4.21/bin/bin/../../lib/gcc/pic32c/8.3.1/../../../../pic32c/lib/thumb/v7e-m+fp/hard\libg-musl.a(memcpy.o)

.text%z173      0x00000000        0x0
 .text          0x00000000        0x0 c:/program files/microchip/xc32/v4.21/bin/bin/../../lib/gcc/pic32c/8.3.1/../../../../pic32c/lib/thumb/v7e-m+fp/hard\libg-musl.a(atoi.o)

.text%z174      0x00000000        0x0
 .text          0x00000000        0x0 c:/program files/microchip/xc32/v4.21/bin/bin/../../lib/gcc/pic32c/8.3.1/../../../../pic32c/lib/thumb/v7e-m+fp/hard\libg-musl.a(stdout.o)

.text%z175      0x00000000        0x0
 .text          0x00000000        0x0 c:/program files/microchip/xc32/v4.21/bin/bin/../../lib/gcc/pic32c/8.3.1/../../../../pic32c/lib/thumb/v7e-m+fp/hard\libg-musl.a(__printf_core.o)

.text%z176      0x00000000        0x0
 .text          0x00000000        0x0 c:/program files/microchip/xc32/v4.21/bin/bin/../../lib/gcc/pic32c/8.3.1/../../../../pic32c/lib/thumb/v7e-m+fp/hard\libg-musl.a(__pop_ptr.o)

.text%z177      0x00000000        0x0
 .text          0x00000000        0x0 c:/program files/microchip/xc32/v4.21/bin/bin/../../lib/gcc/pic32c/8.3.1/../../../../pic32c/lib/thumb/v7e-m+fp/hard\libg-musl.a(__pop_int.o)

.text%z178      0x00000000        0x0
 .text          0x00000000        0x0 c:/program files/microchip/xc32/v4.21/bin/bin/../../lib/gcc/pic32c/8.3.1/../../../../pic32c/lib/thumb/v7e-m+fp/hard\libg-musl.a(__fmt_x.o)

.text%z179      0x00000000        0x0
 .text          0x00000000        0x0 c:/program files/microchip/xc32/v4.21/bin/bin/../../lib/gcc/pic32c/8.3.1/../../../../pic32c/lib/thumb/v7e-m+fp/hard\libg-musl.a(__fmt_u.o)

.text%z180      0x00000000        0x0
 .text          0x00000000        0x0 c:/program files/microchip/xc32/v4.21/bin/bin/../../lib/gcc/pic32c/8.3.1/../../../../pic32c/lib/thumb/v7e-m+fp/hard\libg-musl.a(__fmt_s.o)

.text%z181      0x00000000        0x0
 .text          0x00000000        0x0 c:/program files/microchip/xc32/v4.21/bin/bin/../../lib/gcc/pic32c/8.3.1/../../../../pic32c/lib/thumb/v7e-m+fp/hard\libg-musl.a(__fmt_o.o)

.text%z182      0x00000000        0x0
 .text          0x00000000        0x0 c:/program files/microchip/xc32/v4.21/bin/bin/../../lib/gcc/pic32c/8.3.1/../../../../pic32c/lib/thumb/v7e-m+fp/hard\libg-musl.a(__fmt_d.o)

.text%z183      0x00000000        0x0
 .text          0x00000000        0x0 c:/program files/microchip/xc32/v4.21/bin/bin/../../lib/gcc/pic32c/8.3.1/../../../../pic32c/lib/thumb/v7e-m+fp/hard\libg-musl.a(__sio_sprintf_doux.o)

.text%z184      0x00000000        0x0
 .text          0x00000000        0x0 c:/program files/microchip/xc32/v4.21/bin/bin/../../lib/gcc/pic32c/8.3.1/../../../../pic32c/lib/thumb/v7e-m+fp/hard\libg-musl.a(__sio_printf_doux.o)

.text%z185      0x00000000        0x0
 .text          0x00000000        0x0 c:/program files/microchip/xc32/v4.21/bin/bin/../../lib/gcc/pic32c/8.3.1/../../../../pic32c/lib/thumb/v7e-m+fp/hard\libg-musl.a(libc.o)

.text%z186      0x00000000        0x0
 .text          0x00000000        0x0 c:/program files/microchip/xc32/v4.21/bin/bin/../../lib/gcc/pic32c/8.3.1/../../../../pic32c/lib/thumb/v7e-m+fp/hard\libg-musl.a(__libc_start_main.o)

.text%z187      0x00000000        0x0
 .text          0x00000000        0x0 c:/program files/microchip/xc32/v4.21/bin/bin/../../lib/gcc/pic32c/8.3.1/../../../../pic32c/lib/thumb/v7e-m+fp/hard\libpic32c.a(data_init_0_1.o)

.text%z188      0x00000000        0x0
 .text          0x00000000        0x0 c:/program files/microchip/xc32/v4.21/bin/bin/../../lib/gcc/pic32c/8.3.1/../../../../pic32c/lib/thumb/v7e-m+fp/hard\libpic32c.a(data_init_wrapper.o)

.text%z189      0x00000000        0x0
 .text          0x00000000        0x0 C:\Users\Loyola\AppData\Local\Temp\cc65FL0A.o

.text%z190      0x00000000        0x0
 .text          0x00000000        0x0 build/Default/debug/thirdparty/RTOS/freertos/FreeRTOSV10.0.0/Source/croutine.o

.text%z191      0x00000000        0x0
 .text          0x00000000        0x0 build/Default/debug/hpl/dmac/hpl_dmac.o

.text%z192      0x00000000        0x0
 .text          0x00000000        0x0 c:/program files/microchip/xc32/v4.21/bin/bin/../../lib/gcc/pic32c/8.3.1/thumb/v7e-m+fp/hard/crti.o
